
test/function_ptr_test.o:     file format mach-o-x86-64

Contents of section .text:
 0000 554889e5 41574156 41554154 534881ec  UH..AWAVAUATSH..
 0010 08020000 4989ff48 8b050000 0000488b  ....I..H......H.
 0020 00488945 d04c8db5 d0fdffff be400000  .H.E.L.......@..
 0030 004c89f7 e8000000 0089c34c 89f789de  .L.........L....
 0040 e8000000 004989c5 488d3d91 5d0000be  .....I..H.=.]...
 0050 1e000000 ba010000 004c89f9 e8000000  .........L......
 0060 0085db7e 234c8d25 935d0000 4d89ee90  ...~#L.%.]..M...
 0070 498b1631 c04c89ff 4c89e6e8 00000000  I..1.L..L.......
 0080 4983c608 ffcb75e8 488d3d74 5d0000be  I.....u.H.=t]...
 0090 1c000000 ba010000 004c89f9 e8000000  .........L......
 00a0 004c89ef e8000000 00488b05 00000000  .L.......H......
 00b0 488b0048 3b45d075 124881c4 08020000  H..H;E.u.H......
 00c0 5b415c41 5d415e41 5f5dc3e8 00000000  [A\A]A^A_]......
 00d0 554889e5 41574156 41545349 89d64189  UH..AWAVATSI..A.
 00e0 f74889fb 4585ff7e 1f4c8d25 305d0000  .H..E..~.L.%0]..
 00f0 0fbe1331 c04c89f7 4c89e6e8 00000000  ...1.L..L.......
 0100 48ffc341 ffcf75e8 bf0a0000 004c89f6  H..A..u......L..
 0110 5b415c41 5e415f5d e9000000 000f1f00  [A\A^A_]........
 0120 554889e5 41574156 53504889 d34189f6  UH..AWAVSPH..A..
 0130 4989ff31 ffe80000 00004889 c14c8b0d  I..1......H..L..
 0140 00000000 49ffc14c 890d0000 0000488d  ....I..L......H.
 0150 35d35c00 0031c048 89df4889 ca4589f0  5.\..1.H..H..E..
 0160 4c89f9e8 00000000 488b0500 00000048  L.......H......H
 0170 8b38e800 0000008b 05000000 004883c4  .8...........H..
 0180 085b415e 415f5dc3 0f1f8400 00000000  .[A^A_].........
 0190 554889e5 5350c745 f4010000 00c745f0  UH..SP.E......E.
 01a0 02000000 488d3da0 5c0000be 08000000  ....H.=.\.......
 01b0 31c0e800 00000048 8d3d9e5c 0000488d  1......H.=.\..H.
 01c0 75f4488d 55f031c0 e8000000 008b75f4  u.H.U.1.......u.
 01d0 488d3da4 5c000031 c0e80000 00008b4d  H.=.\..1.......M
 01e0 f089c889 c68975f4 488d3d98 5c000031  ......u.H.=.\..1
 01f0 c0e80000 0000488b 05000000 00488b10  ......H......H..
 0200 488d3d8c 5c0000be 9b000000 e8000000  H.=.\...........
 0210 00bf3800 0000e800 00000048 89c3f20f  ..8........H....
 0220 1005d257 0000f20f 100dd257 0000f20f  ...W.......W....
 0230 1015d257 0000f20f 101dd257 00004889  ...W.......W..H.
 0240 dfe80000 0000488d 5310488d 3d5d5c00  ......H.S.H.=]\.
 0250 0031c048 89dee800 00000048 8b034889  .1.H.......H..H.
 0260 dfff5008 31c04883 c4085b5d c30f1f00  ..P.1.H...[]....
 0270 554889e5 415653bf 10000000 e8000000  UH..AVS.........
 0280 004889c3 f20f1005 8c570000 4889dfe8  .H.......W..H...
 0290 00000000 4c8b7308 488d3d27 5c0000be  ....L.s.H.='\...
 02a0 10000000 31c0e800 00000048 8d3d235c  ....1......H.=#\
 02b0 000031c0 4889dee8 00000000 488d3d21  ..1.H.......H.=!
 02c0 5c000031 c04c89f6 e8000000 00488d3d  \..1.L.......H.=
 02d0 245c0000 be110000 0031d231 c0e80000  $\.......1.1....
 02e0 0000488b 034889df ff501048 8b034889  ..H..H...P.H..H.
 02f0 dfff5008 31c05b41 5e5dc30f 1f440000  ..P.1.[A^]...D..
 0300 554889e5 41574156 41545348 83ec30c7  UH..AWAVATSH..0.
 0310 45dc7856 34124c8b 25000000 00498b14  E.xV4.L.%....I..
 0320 24488d5d dcbe0400 00004889 dfe80000  $H.]......H.....
 0330 0000488d 35000000 00488d3d c25b0000  ..H.5....H.=.[..
 0340 31c0e800 00000048 8b050000 0000488b  1......H......H.
 0350 10be0400 00004889 dfe80000 0000bf10  ......H.........
 0360 000000e8 00000000 4989c6f2 0f1005ad  ........I.......
 0370 5600004c 89f7e800 000000bf 28000000  V..L........(...
 0380 e8000000 004989c7 f20f1005 98560000  .....I.......V..
 0390 f20f100d 98560000 f20f1015 98560000  .....V.......V..
 03a0 4c89ffe8 00000000 bf380000 00e80000  L........8......
 03b0 00004889 c3f20f10 15835600 00f20f10  ..H.......V.....
 03c0 1d835600 004889df f20f1005 58560000  ..V..H......XV..
 03d0 f20f100d 58560000 e8000000 00488d3d  ....XV.......H.=
 03e0 2d5b0000 be080000 00ba0400 0000b908  -[..............
 03f0 00000031 c0e80000 0000488d 3d445b00  ...1......H.=D[.
 0400 00be1000 000031c0 4889dae8 00000000  ......1.H.......
 0410 488d3d4d 5b0000be 28000000 31c04c89  H.=M[...(...1.L.
 0420 fae80000 0000498b 074c89ff ff501848  ......I..L...P.H
 0430 8d3d4e5b 0000be38 00000031 c04889da  .=N[...8...1.H..
 0440 e8000000 00488b03 4889dfff 5018488d  .....H..H...P.H.
 0450 5310488d 3d495b00 00be0800 000031c0  S.H.=I[.......1.
 0460 e8000000 00488b03 4889dfff 5010488b  .....H..H...P.H.
 0470 034889df ff501848 8b034889 dfff5020  .H...P.H..H...P 
 0480 48c745c8 21000000 48c745d0 00000000  H.E.!...H.E.....
 0490 488b45c8 488b4dd0 48894c24 08488904  H.E.H.M.H.L$.H..
 04a0 24488d3d 1d5b0000 be110000 0031d2b9  $H.=.[.......1..
 04b0 19000000 4531c031 c0e80000 0000488d  ....E1.1......H.
 04c0 3d465b00 00be1100 000031d2 31c0e800  =F[.......1.1...
 04d0 00000048 8d3d495b 0000be01 00000031  ...H.=I[.......1
 04e0 d231c0e8 00000000 498b074c 89ffff50  .1......I..L...P
 04f0 08488b03 4889dfff 5008498b 064c89f7  .H..H...P.I..L..
 0500 ff500849 8b142448 8d3d8559 0000beee  .P.I..$H.=.Y....
 0510 000000e8 00000000 31c04883 c4305b41  ........1.H..0[A
 0520 5c415e41 5f5dc366 0f1f8400 00000000  \A^A_].f........
 0530 554889e5 e8000000 00e80000 0000488d  UH............H.
 0540 3dfb5a00 0031f631 c0e80000 0000e800  =.Z..1.1........
 0550 00000048 8d3dfa5a 000031f6 31c0e800  ...H.=.Z..1.1...
 0560 00000031 c05dc3                      ...1.].         
Contents of section .debug_info:
 0567 902f0000 02000000 00000801 00000000  ./..............
 0577 04002a00 00000000 00004500 00000100  ..*.......E.....
 0587 00000000 00000000 00000002 20010000  ............ ...
 0597 00000000 88010000 00000000 0156ad0e  .............V..
 05a7 0000a30e 0000022a e1010000 01010378  .......*.......x
 05b7 000000a0 00000002 2c090308 7f000000  ........,.......
 05c7 00000004 38010000 99100000 022aa702  ....8........*..
 05d7 00000481 0100009e 10000002 2ae10100  ............*...
 05e7 0004d001 00007c10 0000022a 680f0000  ......|....*h...
 05f7 05190200 00a31000 00022e86 24000000  ............$...
 0607 06ab0000 00840000 00011f07 8d000000  ................
 0617 070808a4 00000098 037a09ac 000000d5  .........z......
 0627 01000003 7b022300 09bd0000 00e10100  ....{.#.........
 0637 00037c02 230809c4 000000e1 01000003  ..|.#...........
 0647 7d02230c 09c70000 00e80100 00037e02  }.#...........~.
 0657 231009d4 000000e8 01000003 7f022312  #.............#.
 0667 09da0000 00ef0100 00038002 231809f1  ............#...
 0677 000000e1 01000003 81022328 09fa0000  ..........#(....
 0687 00140200 00038402 23300902 01000015  ........#0......
 0697 02000003 85022338 09090100 00250200  ......#8.....%..
 06a7 00038602 23400914 0100004b 02000003  ....#@.....K....
 06b7 87022348 09480100 008d0200 00038802  ..#H.H..........
 06c7 2350094f 010000ef 01000003 8b022358  #P.O..........#X
 06d7 09530100 00b10200 00038c02 23680963  .S..........#h.c
 06e7 010000e1 01000003 8d022370 09670100  ..........#p.g..
 06f7 00bc0200 00039002 23740976 010000cf  ........#t.v....
 0707 02000003 91022377 097c0100 00ef0100  ......#w.|......
 0717 00039402 23780980 010000e1 01000003  ....#x..........
 0727 97032388 01098901 00006502 00000398  ..#.......e.....
 0737 03239001 000ada01 000007af 00000008  .#..............
 0747 0107c000 00000504 07ce0000 00050208  ................
 0757 de000000 10035809 e5000000 d5010000  ......X.........
 0767 03590223 0009eb00 0000e101 0000035a  .Y.#...........Z
 0777 02230800 0b0a1a02 00000ce1 0100000d  .#..............
 0787 14020000 000a2a02 00000ce1 0100000d  ......*.........
 0797 14020000 0d3f0200 000de101 0000000a  .....?..........
 07a7 44020000 070f0100 0006010a 50020000  D...........P...
 07b7 0c650200 000d1402 00000d65 0200000d  .e.........e....
 07c7 e1010000 00067002 00001a01 0000034d  ......p........M
 07d7 067b0200 00210100 00054706 86020000  .{...!....G.....
 07e7 30010000 042e073a 01000005 080a9202  0......:........
 07f7 00000ce1 0100000d 14020000 0da70200  ................
 0807 000de101 0000000a ac020000 0e440200  .............D..
 0817 000ab602 00000f5a 01000001 10da0100  .......Z........
 0827 0011c802 00000300 126d0100 00080710  .........m......
 0837 da010000 11c80200 00010013 91010000  ................
 0847 18149f01 00001203 00000223 0014b601  ...........#....
 0857 00001203 00000223 0414c001 00001402  .......#........
 0867 00000223 0814d201 00001402 00000223  ...#...........#
 0877 100007a9 01000007 04150806 5209e001  ............R...
 0887 0000e101 00000653 02230009 e5010000  .......S.#......
 0897 e1010000 06540223 04001510 065709e0  .....T.#.....W..
 08a7 0100005b 03000006 58022300 09e50100  ...[....X.#.....
 08b7 005b0300 00065902 23080007 e9010000  .[....Y.#.......
 08c7 05081510 065d09e0 01000086 02000006  .....]..........
 08d7 5e022300 09e50100 00860200 00065f02  ^.#..........._.
 08e7 23080016 80044c09 f2010000 a4030000  #.....L.........
 08f7 044d0223 0009fd01 00008602 0000044e  .M.#...........N
 0907 02230000 10440200 0011c802 00008000  .#...D..........
 0917 08070200 00380749 090a0200 00e10100  .....8.I........
 0927 00074a02 23000911 020000e1 01000007  ..J.#...........
 0937 4b022304 09180200 00e10100 00074c02  K.#...........L.
 0947 23080920 020000e1 01000007 4d02230c  #.. ........M.#.
 0957 09280200 00e10100 00074e02 2310092f  .(........N.#../
 0967 020000e1 01000007 4f022314 09370200  ........O.#..7..
 0977 00e10100 00075002 2318093f 020000e1  ......P.#..?....
 0987 01000007 5102231c 09470200 00e10100  ....Q.#..G......
 0997 00075202 23200950 0200005b 03000007  ..R.# .P...[....
 09a7 53022328 095a0200 003f0200 00075402  S.#(.Z...?....T.
 09b7 23300017 4b050000 62020000 38026f18  #0..K...b...8.o.
 09c7 4b050000 02230001 182c0600 00022310  K....#...,....#.
 09d7 01093603 00007e06 00000276 02231809  ..6...~....v.#..
 09e7 47030000 7e060000 02770223 20095103  G...~....w.# .Q.
 09f7 00007e06 00000278 02232809 59030000  ..~....x.#(.Y...
 0a07 7e060000 02790223 30196202 00000271  ~....y.#0.b....q
 0a17 01010101 1a850600 00010d7e 0600000d  ...........~....
 0a27 7e060000 0d7e0600 000d7e06 0000001b  ~....~....~.....
 0a37 61030000 e5020000 0272e101 00000102  a........r......
 0a47 10020101 01015304 00001a85 06000001  ......S.........
 0a57 001c7103 0000fb02 00000273 01021003  ..q........s....
 0a67 01010101 53040000 1a850600 0001001b  ....S...........
 0a77 81030000 30030000 0274e101 00000102  ....0....t......
 0a87 10040101 01015304 00001a85 06000001  ......S.........
 0a97 001d970f 00000102 10000101 01010153  ...............S
 0aa7 0400001a 85060000 01000017 4b050000  ............K...
 0ab7 67020000 1002581e 6d020000 14060000  g.....X.m.......
 0ac7 02230001 09890200 00e10100 00026102  .#............a.
 0ad7 23081967 02000002 5a010101 011a2706  #..g....Z.....'.
 0ae7 00000100 1f910200 00025b01 02100001  ..........[.....
 0af7 0101014b 0500001a 27060000 01002098  ...K....'..... .
 0b07 020000ad 02000002 5ce10100 00010101  ........\.......
 0b17 011a2706 00000100 21b60200 00cb0200  ..'.....!.......
 0b27 00025d01 0101011a 27060000 010de101  ..].....'.......
 0b37 0000001b d4020000 e5020000 025ee101  .............^..
 0b47 00000202 10020101 01014b05 00001a27  ..........K....'
 0b57 06000001 001cea02 0000fb02 0000025f  ..............._
 0b67 01021003 01010101 4b050000 1a270600  ........K....'..
 0b77 00010000 0a190600 00222206 00007902  .........""...y.
 0b87 000023e1 0100000a 4b050000 172c0600  ..#.....K....,..
 0b97 00000300 00080251 1e0a0300 00140600  .......Q........
 0ba7 00022300 011b1a03 00003003 00000254  ..#.......0....T
 0bb7 e1010000 02021000 01010101 2c060000  ............,...
 0bc7 1a790600 00010024 00030000 01010101  .y.....$........
 0bd7 011a7906 00000100 000a2c06 00000740  ..y.......,....@
 0be7 03000004 080a5304 00000a2c 06000017  ......S....,....
 0bf7 8f060000 92030000 1002361e 98030000  ..........6.....
 0c07 14060000 02230001 09a40300 007e0600  .....#.......~..
 0c17 00023f02 23081992 03000002 38010101  ..?.#.......8...
 0c27 011a3e07 0000010d 7e060000 001fa803  ..>.....~.......
 0c37 00000239 01021000 01010101 8f060000  ...9............
 0c47 1a3e0700 00010020 af030000 be030000  .>..... ........
 0c57 023b7e06 00000101 01011a43 07000001  .;~........C....
 0c67 001cc003 0000fb02 0000023c 01021002  ...........<....
 0c77 01010101 8f060000 1a3e0700 0001001c  .........>......
 0c87 d1030000 e2030000 023d0102 10030101  .........=......
 0c97 01018f06 00001a3e 07000001 00000a8f  .......>........
 0ca7 0600000a 48070000 0e8f0600 00065807  ....H.........X.
 0cb7 0000e703 00000209 0a140200 00174b05  ..............K.
 0cc7 0000ec03 00002802 64184b05 00000223  ......(.d.K....#
 0cd7 000109f3 0300007e 06000002 6a022310  .......~....j.#.
 0ce7 09fe0300 007e0600 00026b02 23180909  .....~....k.#...
 0cf7 0400007e 06000002 6c022320 19ec0300  ...~....l.# ....
 0d07 00026601 0101011a 17080000 010d7e06  ..f...........~.
 0d17 00000d7e 0600000d 7e060000 001b1204  ...~....~.......
 0d27 0000e502 00000267 e1010000 01021002  .......g........
 0d37 01010101 5d070000 1a170800 0001001c  ....]...........
 0d47 24040000 fb020000 02680102 10030101  $........h......
 0d57 01015d07 00001a17 08000001 001d4110  ..]...........A.
 0d67 00000102 10000101 0101015d 0700001a  ...........]....
 0d77 17080000 0100000a 5d070000 0a4b0500  ........]....K..
 0d87 00253604 00000870 01253a04 00000871  .%6....p.%:....q
 0d97 0126088f 020f0000 26089065 02000026  .&......&..e...&
 0da7 08910d0f 00002608 932a0f00 00260894  ......&..*...&..
 0db7 3f0f0000 26089559 0f000026 08966d0f  ?...&..Y...&..m.
 0dc7 00002608 97820f00 00260898 960f0000  ..&......&......
 0dd7 260899aa 0f000026 089ac70f 00002608  &......&......&.
 0de7 9be90f00 0026089c ff0f0000 26089d23  .....&......&..#
 0df7 10000026 089e3d10 00002608 9f571000  ...&..=...&..W..
 0e07 002608a0 6d100000 2608a183 10000026  .&..m...&......&
 0e17 08a2a310 00002608 a3be1000 002608a5  ......&......&..
 0e27 d9100000 2608a606 11000026 08a72511  ....&......&..%.
 0e37 00002608 a83f1100 002608aa 5e110000  ..&..?...&..^...
 0e47 2608ab78 11000026 08ac9c11 00002608  &..x...&......&.
 0e57 adbb1100 002608ae cf110000 2608afed  .....&......&...
 0e67 11000026 08b00612 00002608 b1231200  ...&......&..#..
 0e77 002608b2 37120000 2608b446 12000026  .&..7...&..F...&
 0e87 08b65b12 00002608 b7751200 002608b8  ..[...&..u...&..
 0e97 8a120000 2608b99f 12000026 08bab912  ....&......&....
 0ea7 00002608 bbdc1200 002608bc 09130000  ..&......&......
 0eb7 2608bd27 13000026 08be4513 00002608  &..'...&..E...&.
 0ec7 bf681300 002608c0 7c130000 2608c18d  .h...&..|...&...
 0ed7 13000026 08c29d13 00002608 c3b11300  ...&......&.....
 0ee7 002608c4 c5130000 2608610d 0f000026  .&......&.a....&
 0ef7 0862d613 00002608 63e11300 00260865  .b....&.c....&.e
 0f07 ec130000 260867f7 13000026 08680b14  ....&.g....&.h..
 0f17 00002608 691f1400 0026086b 33140000  ..&.i....&.k3...
 0f27 26086d47 14000026 086e6914 00002608  &.mG...&.ni...&.
 0f37 6f8d1400 00260870 ad140000 260872cb  o....&.p....&.r.
 0f47 14000026 0874e914 00002608 76071500  ...&.t....&.v...
 0f57 00260878 25150000 26087933 15000026  .&.x%...&.y3...&
 0f67 087a4315 00002608 7b5c1500 0026087c  .zC...&.{\...&.|
 0f77 6c150000 26087d80 15000026 087e9915  l...&.}....&.~..
 0f87 00002608 7fa31500 00260880 bd150000  ..&......&......
 0f97 260881cd 15000026 0882dd15 00002608  &......&......&.
 0fa7 83f11500 00260884 09160000 26088546  .....&......&..F
 0fb7 16000026 08866516 00002608 87791600  ...&..e...&..y..
 0fc7 00260889 8d160000 26088ba1 16000026  .&......&......&
 0fd7 088cba16 00002608 8ed31600 00260890  ......&......&..
 0fe7 ec160000 26089105 17000026 08922f17  ....&......&../.
 0ff7 00002608 93481700 00260894 66170000  ..&..H...&..f...
 1007 2608450d 0f000026 08468e17 00002608  &.E....&.F....&.
 1017 47ac1700 00260848 ca170000 260849e3  G....&.H....&.I.
 1027 17000026 084a0118 00002608 4b1a1800  ...&.J....&.K...
 1037 0026084c 38180000 26084d56 18000026  .&.L8...&.MV...&
 1047 084e6f18 00002608 4f8d1800 00260850  .No...&.O....&.P
 1057 a6180000 260852c4 18000026 0854e218  ....&.R....&.T..
 1067 00002608 56fb1800 00260858 14190000  ..&.V....&.X....
 1077 26085a2d 19000026 085c4619 00002608  &.Z-...&.\F...&.
 1087 5e5f1900 00260869 78190000 26086a91  ^_...&.ix...&.j.
 1097 19000026 086baf19 00002608 6cc71900  ...&.k....&.l...
 10a7 00260837 db190000 26083ff3 19000026  .&.7....&.?....&
 10b7 08470b1a 00002608 4f231a00 00260857  .G....&.O#...&.W
 10c7 3b1a0000 26085f53 1a000026 08676b1a  ;...&._S...&.gk.
 10d7 00002608 6f831a00 00260877 9b1a0000  ..&.o....&.w....
 10e7 26087fb4 1a000026 0887cd1a 00002608  &......&......&.
 10f7 8fe61a00 00260897 ff1a0000 26089f18  .....&......&...
 1107 1b000026 083f311b 00002608 40471b00  ...&.?1...&.@G..
 1117 00260841 5d1b0000 2608487e 1b000026  .&.A]...&.H~...&
 1127 0850961b 00002608 58ae1b00 00260860  .P....&.X....&.`
 1137 c61b0000 260868de 1b000026 0870f61b  ....&.h....&.p..
 1147 00002608 780e1c00 00260880 261c0000  ..&.x....&..&...
 1157 2608883e 1c000026 0890561c 00002608  &..>...&..V...&.
 1167 986e1c00 002608a0 861c0000 2608a89e  .n...&......&...
 1177 1c000026 08b0bb1c 00002608 b8cf1c00  ...&......&.....
 1187 002608c0 e71c0000 2608c8ff 1c000026  .&......&......&
 1197 08d0181d 00002608 772c1d00 00260878  ......&.w,...&.x
 11a7 0d0f0000 260879b0 03000026 087a311b  ....&.y....&.z1.
 11b7 00002608 7b020f00 0026087c 4d1d0000  ..&.{....&.|M...
 11c7 26087d67 1d000026 087e811d 00002608  &.}g...&.~....&.
 11d7 7fa01d00 00260880 be1d0000 260881e1  .....&......&...
 11e7 1d000026 0883fa1d 00002608 84141e00  ...&......&.....
 11f7 00260885 321e0000 26088650 1e000026  .&..2...&..P...&
 1207 0888691e 00002608 897e1e00 0026088a  ..i...&..~...&..
 1217 931e0000 26088ba7 1e000026 088cc51e  ....&......&....
 1227 00002608 8dde1e00 0026088e f71e0000  ..&......&......
 1237 26088f10 1f000026 0890241f 00002608  &......&..$...&.
 1247 91321f00 00260892 4b1f0000 2608935f  .2...&..K...&.._
 1257 1f000026 0894781f 00002608 96961f00  ...&..x...&.....
 1267 00260897 af1f0000 260899c8 1f000026  .&......&......&
 1277 089be61f 00002608 9d042000 0026089f  ......&... ..&..
 1287 22200000 2608a140 20000026 08a25920  " ..&..@ ..&..Y 
 1297 00002608 a3772000 002608a4 90200000  ..&..w ..&... ..
 12a7 2608a5ae 20000026 08a6c720 00002608  &... ..&... ..&.
 12b7 a7e02000 002608a8 fe200000 2608c51c  .. ..&... ..&...
 12c7 21000026 08c63521 00002608 c7492100  !..&..5!..&..I!.
 12d7 002608c8 62210000 2608c980 21000026  .&..b!..&...!..&
 12e7 08ca9e21 00002608 cbbc2100 002608cc  ...!..&...!..&..
 12f7 da210000 2608cdf8 21000026 08ce2922  .!..&...!..&..)"
 1307 00002608 cf3d2200 002608d0 51220000  ..&..="..&..Q"..
 1317 2608d16f 22000026 08d29222 00002608  &..o"..&..."..&.
 1327 d3b52200 002608d4 d3220000 2608d5fb  .."..&..."..&...
 1337 22000026 082e2323 00002608 2f0d0f00  "..&..##..&./...
 1347 00260899 2e230000 26089a40 23000026  .&...#..&..@#..&
 1357 089b4b23 00002608 9c562300 0026089e  ..K#..&..V#..&..
 1367 61230000 26089f6c 23000026 08a07e23  a#..&..l#..&..~#
 1377 00002608 a1a00000 002608a3 89230000  ..&......&...#..
 1387 2608a494 23000026 08a59f23 00002608  &...#..&...#..&.
 1397 a6aa2300 002608a8 b5230000 2608a9c0  ..#..&...#..&...
 13a7 23000026 08aacb23 00002608 abd62300  #..&...#..&...#.
 13b7 002608ad e1230000 2608aeec 23000026  .&...#..&...#..&
 13c7 08aff723 00002608 b0022400 002608b2  ...#..&...$..&..
 13d7 0d240000 2608b318 24000026 08b42324  .$..&...$..&..#$
 13e7 00002608 b52e2400 002608b7 39240000  ..&...$..&..9$..
 13f7 2608b84f 24000026 08ba5a24 00002608  &..O$..&..Z$..&.
 1407 bb652400 00260838 70240000 2608390d  .e$..&.8p$..&.9.
 1417 0f000026 083a8624 00002608 3bb00300  ...&.:.$..&.;...
 1427 0026083c 9c240000 26083dae 24000026  .&.<.$..&.=.$..&
 1437 083ec724 00002608 3fe42400 00260840  .>.$..&.?.$..&.@
 1447 fd240000 26084111 25000026 08422f25  .$..&.A.%..&.B/%
 1457 00002608 43432500 00260844 57250000  ..&.CC%..&.DW%..
 1467 000006b2 0000003e 04000003 9906180f  .......>........
 1477 00004304 0000091e 06230f00 004a0400  ..C......#...J..
 1487 00045c07 5a040000 0708276c 04000003  ..\.Z.....'l....
 1497 0701e101 00000101 010da702 00000027  ...............'
 14a7 73040000 030801e1 01000001 01010da7  s...............
 14b7 0200000d a7020000 00287a04 0000030f  .........(z.....
 14c7 01680f00 00010101 0a020f00 00278204  .h...........'..
 14d7 00000314 013f0200 00010101 0d3f0200  .....?.......?..
 14e7 00002989 04000003 e8e10100 00010101  ..).............
 14f7 0d680f00 00002990 04000003 ebe10100  .h....).........
 1507 00010101 0d680f00 00002a97 0400009e  .....h....*.....
 1517 04000003 f2680f00 00010101 0da70200  .....h..........
 1527 000da702 0000002a a4040000 ad040000  .......*........
 1537 03f8680f 00000101 010da702 00000da7  ..h.............
 1547 0200000d 680f0000 002bb504 0000030b  ....h....+......
 1557 01010101 0d680f00 000d3f02 00000027  .....h....?....'
 1567 bc040000 030c01e1 01000001 01010d68  ...............h
 1577 0f00000d 3f020000 0de10100 000d0d0f  ....?...........
 1587 00000029 c4040000 03f4e101 00000101  ...)............
 1597 010d680f 00000da7 0200002c 0029cc04  ..h........,.)..
 15a7 000003fa e1010000 0101010d 680f0000  ............h...
 15b7 0da70200 002c0027 d3040000 030301e1  .....,.'........
 15c7 01000001 01010da7 0200002c 0027da04  ...........,.'..
 15d7 0000030a 01e10100 00010101 0da70200  ................
 15e7 002c0027 e0040000 03a501e1 01000001  .,.'............
 15f7 01010d3f 0200000d 0d0f0000 0da70200  ...?............
 1607 002c0027 e9040000 030d01e1 01000001  .,.'............
 1617 01010d3f 0200000d a7020000 2c0027f1  ...?........,.'.
 1627 04000003 0e01e101 00000101 010da702  ................
 1637 00000da7 0200002c 0027f804 00000316  .......,.'......
 1647 01e10100 00010101 0d680f00 000da702  .........h......
 1657 00000df8 10000000 0afd1000 002ddb02  .............-..
 1667 00009101 00002701 05000003 a601e101  ......'.........
 1677 00000101 010d680f 00000da7 0200000d  ......h.........
 1687 f8100000 00270905 000003a7 01e10100  .....'..........
 1697 00010101 0da70200 000df810 00000027  ...............'
 16a7 10050000 03a901e1 01000001 01010da7  ................
 16b7 0200000d a7020000 0df81000 00002718  ..............'.
 16c7 05000003 1701e101 00000101 010da702  ................
 16d7 00000df8 10000000 27200500 0003a801  ........' ......
 16e7 e1010000 0101010d 3f020000 0d0d0f00  ........?.......
 16f7 000da702 00000df8 10000000 272a0500  ............'*..
 1707 00031801 e1010000 0101010d 3f020000  ............?...
 1717 0da70200 000df810 00000029 33050000  ...........)3...
 1727 03ece101 00000101 010d680f 00000029  ..........h....)
 1737 39050000 03ee3f02 00000101 010d3f02  9.....?.......?.
 1747 00000de1 0100000d 680f0000 00293f05  ........h....)?.
 1757 000003f5 e1010000 0101010d e1010000  ................
 1767 0d680f00 00002a45 0500004c 05000003  .h....*E...L....
 1777 f6e10100 00010101 0da70200 000d680f  ..............h.
 1787 00000029 52050000 03ffe101 00000101  ...)R...........
 1797 010d680f 00000028 57050000 030001e1  ..h....(W.......
 17a7 01000001 0101275f 05000003 01013f02  ......'_......?.
 17b7 00000101 010d3f02 00000027 64050000  ......?....'d...
 17c7 030401e1 01000001 01010de1 0100000d  ................
 17d7 680f0000 00276905 00000305 01e10100  h....'i.........
 17e7 00010101 0de10100 00002771 05000003  ..........'q....
 17f7 0601e101 00000101 010da702 00000027  ...............'
 1807 76050000 031501e1 01000001 01010de1  v...............
 1817 0100000d 680f0000 00297d05 000003f7  ....h....)}.....
 1827 0d0f0000 0101010d 14020000 0d0d0f00  ................
 1837 000d0d0f 00000d68 0f000000 2a830500  .......h....*...
 1847 008b0500 0003fe0d 0f000001 01010d03  ................
 1857 1300000d 0d0f0000 0d0d0f00 000d680f  ..............h.
 1867 0000000a 08130000 2e299205 000003ed  .........)......
 1877 e1010000 0101010d 680f0000 0d221300  ........h...."..
 1887 00000a65 02000029 9a050000 03fbe101  ...e...)........
 1897 00000101 010d680f 00000d5b 0300000d  ......h....[....
 18a7 e1010000 0029a005 000003fc e1010000  .....)..........
 18b7 0101010d 680f0000 0d5e1300 00000a63  ....h....^.....c
 18c7 1300000e 65020000 29a80500 0003fd5b  ....e...)......[
 18d7 03000001 01010d68 0f000000 2bae0500  .......h....+...
 18e7 00030901 0101010d 680f0000 002fb505  ........h..../..
 18f7 000003e7 0101010d 680f0000 0029be05  ........h....)..
 1907 000003e9 e1010000 0101010d 680f0000  ............h...
 1917 0029c305 000003ea e1010000 0101010d  .)..............
 1927 680f0000 002bca05 00000302 01010101  h....+..........
 1937 0da70200 00000619 030000d1 05000006  ................
 1947 55063a03 0000d705 0000065a 06620300  U.:........Z.b..
 1957 00de0500 00066029 e6050000 06837e06  ......`)......~.
 1967 00000101 010da702 00000029 eb050000  ...........)....
 1977 0684e101 00000101 010da702 00000029  ...............)
 1987 f0050000 06855b03 00000101 010da702  ......[.........
 1997 00000029 f5050000 06888602 00000101  ...)............
 19a7 010da702 0000002a fb050000 03060000  .......*........
 19b7 06a27e06 00000101 010da702 00000d64  ..~............d
 19c7 14000000 0a3f0200 002a0a06 00001206  .....?...*......
 19d7 000006a3 86140000 0101010d a7020000  ................
 19e7 0d641400 00000719 06000004 04291f06  .d...........)..
 19f7 000006a6 a6140000 0101010d a7020000  ................
 1a07 0d641400 00000727 06000004 10293306  .d.....'.....)3.
 1a17 000006a4 5b030000 0101010d a7020000  ....[...........
 1a27 0d641400 000de101 00000029 3a060000  .d.........):...
 1a37 06a98602 00000101 010da702 00000d64  ...............d
 1a47 1400000d e1010000 00294206 000006ac  .........)B.....
 1a57 230f0000 0101010d a7020000 0d641400  #............d..
 1a67 000de101 00000029 4a060000 06afab00  .......)J.......
 1a77 00000101 010da702 00000d64 1400000d  ...........d....
 1a87 e1010000 00305306 0000069f e1010000  .....0S.........
 1a97 0101012f 58060000 06a10101 010d1203  .../X...........
 1aa7 00000029 5e060000 068c1402 00000101  ...)^...........
 1ab7 010d0d0f 00000d0d 0f000000 2f650600  ............/e..
 1ac7 00068f01 01010d14 02000000 296a0600  ............)j..
 1ad7 00069814 02000001 01010d0d 0f000000  ................
 1ae7 29710600 0006a014 02000001 01010d14  )q..............
 1af7 0200000d 0d0f0000 00317906 00000680  .........1y.....
 1b07 01010129 7f060000 0682e101 00000101  ...)............
 1b17 010db715 0000000a bc150000 322f8606  ............2/..
 1b27 0000068e 0101010d e1010000 002f8b06  ............./..
 1b37 000006b6 0101010d e1010000 00299106  .............)..
 1b47 00000690 3f020000 0101010d a7020000  ....?...........
 1b57 002a9806 0000a006 000006b1 e1010000  .*..............
 1b67 0101010d a7020000 0029a706 0000068a  .........)......
 1b77 14020000 0101010d 03130000 0d031300  ................
 1b87 000d0d0f 00000d0d 0f00000d 31160000  ............1...
 1b97 000a3616 00000ce1 0100000d 03130000  ..6.............
 1ba7 0d031300 00002faf 06000006 9d010101  ....../.........
 1bb7 0d140200 000d0d0f 00000d0d 0f00000d  ................
 1bc7 31160000 0029b506 00000681 e1010000  1....)..........
 1bd7 0101010d e1010000 0029b906 00000691  .........)......
 1be7 5b030000 0101010d 5b030000 0029be06  [.......[....)..
 1bf7 00000695 86020000 0101010d 86020000  ................
 1c07 0029c406 0000068d d6130000 0101010d  .)..............
 1c17 e1010000 0de10100 000029c8 06000006  ..........).....
 1c27 92e11300 00010101 0d5b0300 000d5b03  .........[....[.
 1c37 00000029 cd060000 0696ec13 00000101  ...)............
 1c47 010d8602 00000d86 02000000 29d30600  ............)...
 1c57 000699e1 01000001 01010da7 0200000d  ................
 1c67 0d0f0000 0029d906 0000069b e1010000  .....)..........
 1c77 0101010d 23170000 0da70200 000d0d0f  ....#...........
 1c87 0000000a 28170000 07e00600 00050429  ....(..........)
 1c97 e8060000 06b3e101 00000101 010d3f02  ..............?.
 1ca7 00000d28 17000000 29ef0600 00069a0d  ...(....).......
 1cb7 0f000001 01010d23 1700000d a7020000  .......#........
 1cc7 0d0d0f00 000029f8 06000006 b20d0f00  ......).........
 1cd7 00010101 0d3f0200 000d8417 00000d0d  .....?..........
 1ce7 0f000000 0a891700 000e2817 00002901  ..........(...).
 1cf7 0700000a 48140200 00010101 0d140200  ....H...........
 1d07 000d0313 00000d0d 0f000000 29080700  ............)...
 1d17 000a4914 02000001 01010d14 0200000d  ..I.............
 1d27 03130000 0d0d0f00 00002910 0700000a  ..........).....
 1d37 4f3f0200 00010101 0d3f0200 000da702  O?.......?......
 1d47 00000029 17070000 0a553f02 00000101  ...).....U?.....
 1d57 010d3f02 00000da7 0200000d 0d0f0000  ..?.............
 1d67 00291f07 00000a4b 3f020000 0101010d  .).....K?.......
 1d77 3f020000 0da70200 00002926 0700000a  ?.........)&....
 1d87 533f0200 00010101 0d3f0200 000da702  S?.......?......
 1d97 00000d0d 0f000000 292e0700 000a47e1  ........).....G.
 1da7 01000001 01010d03 1300000d 03130000  ................
 1db7 0d0d0f00 00002935 0700000a 4de10100  ......)5....M...
 1dc7 00010101 0da70200 000da702 00000029  ...............)
 1dd7 3c070000 0a54e101 00000101 010da702  <....T..........
 1de7 00000da7 0200000d 0d0f0000 00294407  .............)D.
 1df7 00000a4e e1010000 0101010d a7020000  ...N............
 1e07 0da70200 0000294c 0700000a 5b0d0f00  ......)L....[...
 1e17 00010101 0d3f0200 000da702 00000d0d  .....?..........
 1e27 0f000000 29540700 000a4614 02000001  ....)T....F.....
 1e37 01010d03 1300000d e1010000 0d0d0f00  ................
 1e47 0000295b 0700000a 4c3f0200 00010101  ..)[....L?......
 1e57 0da70200 000de101 00000029 62070000  ...........)b...
 1e67 0a500d0f 00000101 010da702 00000da7  .P..............
 1e77 02000000 296a0700 000a563f 02000001  ....)j....V?....
 1e87 01010da7 0200000d a7020000 00297207  .............)r.
 1e97 00000a57 3f020000 0101010d a7020000  ...W?...........
 1ea7 0de10100 0000297a 0700000a 580d0f00  ......)z....X...
 1eb7 00010101 0da70200 000da702 00000029  ...............)
 1ec7 81070000 0a593f02 00000101 010da702  .....Y?.........
 1ed7 00000da7 02000000 29880700 000a5a3f  ........).....Z?
 1ee7 02000001 01010d3f 0200000d a7020000  .......?........
 1ef7 00298f07 00000a4a 14020000 0101010d  .).....J........
 1f07 14020000 0de10100 000d0d0f 0000002a  ...............*
 1f17 96070000 a0070000 0a513f02 00000101  .........Q?.....
 1f27 010de101 00000029 a9070000 0a520d0f  .......).....R..
 1f37 00000101 010da702 0000002a b0070000  ...........*....
 1f47 bc070000 0bd4e101 00000101 010de101  ................
 1f57 0000002a c4070000 d0070000 0bdae101  ...*............
 1f67 00000101 010de101 0000002a d8070000  ...........*....
 1f77 e4070000 0be0e101 00000101 010de101  ................
 1f87 0000002a ec070000 f8070000 0be6e101  ...*............
 1f97 00000101 010de101 0000002a 00080000  ...........*....
 1fa7 0c080000 0bede101 00000101 010de101  ................
 1fb7 0000002a 14080000 20080000 0bf3e101  ...*.... .......
 1fc7 00000101 010de101 0000002a 28080000  ...........*(...
 1fd7 34080000 0bf9e101 00000101 010de101  4...............
 1fe7 0000002a 3c080000 48080000 0bffe101  ...*<...H.......
 1ff7 00000101 010de101 00000033 50080000  ...........3P...
 2007 5c080000 0b0501e1 01000001 01010de1  \...............
 2017 01000000 33640800 00700800 000b0b01  ....3d...p......
 2027 e1010000 0101010d e1010000 00337808  .............3x.
 2037 00008408 00000b11 01e10100 00010101  ................
 2047 0de10100 0000338c 08000099 0800000b  ......3.........
 2057 1801e101 00000101 010de101 00000033  ...............3
 2067 a2080000 ae080000 0b2401e1 01000001  .........$......
 2077 01010de1 01000000 33b60800 00c20800  ........3.......
 2087 000b2a01 e1010000 0101010d e1010000  ..*.............
 2097 00063c1b 0000ca08 00000c1f 06e10100  ..<.............
 20a7 00d10800 00047006 521b0000 e1080000  ......p.R.......
 20b7 0e1f06e1 010000eb 0800000d 2806681b  ............(.h.
 20c7 0000fe08 00000f1f 06731b00 00070900  .........s......
 20d7 000d2a06 12030000 19090000 042d2a24  ..*..........-*$
 20e7 09000031 09000010 42e10100 00010101  ...1....B.......
 20f7 0d311b00 00002a3a 09000047 09000010  .1....*:...G....
 2107 48e10100 00010101 0d311b00 00002a50  H........1....*P
 2117 0900005d 09000011 32e10100 00010101  ...]....2.......
 2127 0d311b00 00002a66 09000073 09000010  .1....*f...s....
 2137 4ee10100 00010101 0d311b00 00002a7c  N........1....*|
 2147 09000089 09000010 5ae10100 00010101  ........Z.......
 2157 0d311b00 00002a92 0900009f 09000010  .1....*.........
 2167 60e10100 00010101 0d311b00 00002aa8  `........1....*.
 2177 090000b5 09000010 66e10100 00010101  ........f.......
 2187 0d311b00 00002abe 090000cb 09000010  .1....*.........
 2197 6ce10100 00010101 0d311b00 00002ad4  l........1....*.
 21a7 090000e1 09000010 72e10100 00010101  ........r.......
 21b7 0d311b00 00002aea 090000f7 09000010  .1....*.........
 21c7 78e10100 00010101 0d311b00 00002a00  x........1....*.
 21d7 0a00000d 0a000010 7ee10100 00010101  ........~.......
 21e7 0d311b00 00002a16 0a000024 0a000010  .1....*....$....
 21f7 84e10100 00010101 0d311b00 00002a2e  .........1....*.
 2207 0a00003c 0a000010 54e10100 00010101  ...<....T.......
 2217 0d311b00 000d5d1b 00000029 450a0000  .1....]....)E...
 2227 10ac5d1b 00000101 010da702 0000002a  ..]............*
 2237 4c0a0000 590a0000 108a311b 00000101  L...Y.....1.....
 2247 010d311b 0000002a 620a0000 6f0a0000  ..1....*b...o...
 2257 1090311b 00000101 010d311b 00000029  ..1.......1....)
 2267 780a0000 1179311b 00000101 010d311b  x....y1.......1.
 2277 00000d47 1b000000 29820a00 00117b47  ...G....).....{G
 2287 1b000001 01010da7 02000000 06371d00  .............7..
 2297 008a0a00 00121f06 421d0000 940a0000  ........B.......
 22a7 04510683 030000a7 0a000004 4f29b30a  .Q..........O)..
 22b7 00001367 e1010000 0101010d 680f0000  ...g........h...
 22c7 0d841700 002c0029 bc0a0000 1368e101  .....,.).....h..
 22d7 00000101 010d680f 00000d84 1700002c  ......h........,
 22e7 0029c40a 00001373 e1010000 0101010d  .).....s........
 22f7 23170000 0d0d0f00 000d8417 00002c00  #.............,.
 2307 29cd0a00 001376e1 01000001 01010d68  ).....v........h
 2317 0f00000d 84170000 0df81000 000029d7  ..............).
 2327 0a000013 78e10100 00010101 0d231700  ....x........#..
 2337 000d0d0f 00000d84 1700000d f8100000  ................
 2347 0029e10a 0000137a e1010000 0101010d  .).....z........
 2357 84170000 0df81000 000029ea 0a000013  ..........).....
 2367 74e10100 00010101 0d841700 000d8417  t...............
 2377 00002c00 29f20a00 0013aae1 01000001  ..,.)...........
 2387 01010d68 0f00000d 84170000 0df81000  ...h............
 2397 000029fb 0a000013 ace10100 00010101  ..).............
 23a7 0d841700 000d8417 00000df8 10000000  ................
 23b7 29040b00 0013aee1 01000001 01010d84  )...............
 23c7 1700000d f8100000 00290c0b 0000139b  .........)......
 23d7 e1010000 0101010d 84170000 2c002914  ............,.).
 23e7 0b000013 9ce10100 00010101 0d841700  ................
 23f7 002c0029 1b0b0000 1362311b 00000101  .,.).....b1.....
 2407 010d680f 00000029 220b0000 13632317  ..h....)"....c#.
 2417 00000101 010d2317 00000de1 0100000d  ......#.........
 2427 680f0000 0029290b 00001364 311b0000  h....))....d1...
 2437 0101010d 28170000 0d680f00 00002930  ....(....h....)0
 2447 0b000013 65e10100 00010101 0d841700  ....e...........
 2457 000d680f 00000029 370b0000 1366e101  ..h....)7....f..
 2467 00000101 010d680f 00000de1 01000000  ......h.........
 2477 293d0b00 00136931 1b000001 01010d68  )=....i1.......h
 2487 0f000000 30430b00 00136a31 1b000001  ....0C....j1....
 2497 0101294c 0b000013 71311b00 00010101  ..)L....q1......
 24a7 0d281700 000d680f 00000029 520b0000  .(....h....)R...
 24b7 1372311b 00000101 010d2817 00000029  .r1.......(....)
 24c7 5b0b0000 1375311b 00000101 010d311b  [....u1.......1.
 24d7 00000d68 0f000000 29630b00 0013907e  ...h....)c.....~
 24e7 06000001 01010d84 1700000d 911f0000  ................
 24f7 000a2317 0000296a 0b000013 af861400  ..#...)j........
 2507 00010101 0d841700 000d911f 00000029  ...............)
 2517 710b0000 13b1a614 00000101 010d8417  q...............
 2527 00000d91 1f000000 29790b00 0013935b  ........)y.....[
 2537 03000001 01010d84 1700000d 911f0000  ................
 2547 0de10100 00002980 0b000013 b4860200  ......).........
 2557 00010101 0d841700 000d911f 00000de1  ................
 2567 01000000 29880b00 00139523 0f000001  ....)......#....
 2577 01010d84 1700000d 911f0000 0de10100  ................
 2587 00002990 0b000013 b6ab0000 00010101  ..).............
 2597 0d841700 000d911f 00000de1 01000000  ................
 25a7 29990b00 00138023 17000001 01010d23  )......#.......#
 25b7 1700000d 84170000 0029a00b 00001387  .........)......
 25c7 23170000 0101010d 23170000 0d841700  #.......#.......
 25d7 000d0d0f 00000029 a80b0000 137c2317  .......).....|#.
 25e7 00000101 010d2317 00000d84 17000000  ......#.........
 25f7 29af0b00 00138523 17000001 01010d23  )......#.......#
 2607 1700000d 84170000 0d0d0f00 000029b7  ..............).
 2617 0b000013 7ee10100 00010101 0d841700  ....~...........
 2627 000d8417 00000029 be0b0000 137fe101  .......)........
 2637 00000101 010d8417 00000d84 17000000  ................
 2647 29c60b00 001386e1 01000001 01010d84  )...............
 2657 1700000d 84170000 0d0d0f00 000029ce  ..............).
 2667 0b000013 8e0d0f00 00010101 0d231700  .............#..
 2677 000d8417 00000d0d 0f000000 29d60b00  ............)...
 2687 0013810d 0f000001 01010d84 1700000d  ................
 2697 84170000 0029de0b 00001384 0d0f0000  .....)..........
 26a7 0101010d 84170000 0029e50b 0000138c  .........)......
 26b7 0d0f0000 0101010d 84170000 0d841700  ................
 26c7 000029ec 0b000013 91231700 00010101  ..)......#......
 26d7 0d231700 000d8417 00000d91 1f000000  .#..............
 26e7 29f30b00 001397e1 01000001 01010d84  )...............
 26f7 1700000d 84170000 0d0d0f00 000029fb  ..............).
 2707 0b000013 98231700 00010101 0d231700  .....#.......#..
 2717 000d8417 00000d0d 0f000000 29030c00  ............)...
 2727 00139923 17000001 01010d23 1700000d  ...#.......#....
 2737 84170000 0d0d0f00 0000290c 0c000013  ..........).....
 2747 9a231700 00010101 0d231700 000d2817  .#.......#....(.
 2757 00000d0d 0f000000 2a140c00 001e0c00  ........*.......
 2767 0013820d 0f000001 01010d23 1700000d  ...........#....
 2777 0d0f0000 0d841700 000d1f22 0000000a  ..........."....
 2787 24220000 0eb00300 0029270c 00001361  $".......)'....a
 2797 311b0000 0101010d e1010000 00292d0c  1............)-.
 27a7 0000138f e1010000 0101010d 311b0000  ............1...
 27b7 0029330c 0000136e e1010000 0101010d  .)3....n........
 27c7 65220000 000a6a22 00000e2c 1d000029  e"....j"...,...)
 27d7 3b0c0000 136b0d0f 00000101 010da702  ;....k..........
 27e7 00000d0d 0f00000d 8d220000 000a2c1d  ........."....,.
 27f7 00002942 0c000013 6c0d0f00 00010101  ..)B....l.......
 2807 0d231700 000da702 00000d0d 0f00000d  .#..............
 2817 8d220000 00294a0c 0000137b 0d0f0000  ."...)J....{....
 2827 0101010d 3f020000 0d281700 000d8d22  ....?....(....."
 2837 00000029 520c0000 136f0d0f 00000101  ...)R....o......
 2847 010d2317 00000df6 2200000d 0d0f0000  ..#.....".......
 2857 0d8d2200 00000aa7 02000029 5c0c0000  .."........)\...
 2867 138a0d0f 00000101 010d3f02 00000d1e  ..........?.....
 2877 2300000d 0d0f0000 0d8d2200 00000a84  #.........".....
 2887 17000006 5b030000 660c0000 14330639  ....[...f....3.9
 2897 23000070 0c000015 1e07770c 00000601  #..p......w.....
 28a7 06e80100 00830c00 00161e06 e1010000  ................
 28b7 8b0c0000 171e0686 02000093 0c000018  ................
 28c7 1e06da01 00009b0c 0000191f 06772300  .............w#.
 28d7 00a30c00 001a1f07 ac0c0000 07020612  ................
 28e7 030000bb 0c00001b 1f062e23 0000c40c  ...........#....
 28f7 00001c1d 06402300 00d10c00 001c1e06  .....@#.........
 2907 4b230000 df0c0000 1c1f0656 230000ed  K#.........V#...
 2917 0c00001c 20066123 0000fb0c 00001c21  .... .a#.......!
 2927 066c2300 00090d00 001c2206 7e230000  .l#.......".~#..
 2937 180d0000 1c2306a0 00000027 0d00001c  .....#.....'....
 2947 24062e23 0000360d 00001c28 06402300  $..#..6....(.@#.
 2957 00420d00 001c2906 4b230000 4f0d0000  .B....).K#..O...
 2967 1c2a0656 2300005c 0d00001c 2b066123  .*.V#..\....+.a#
 2977 0000690d 00001c2c 066c2300 00760d00  ..i....,.l#..v..
 2987 001c2d06 7e230000 840d0000 1c2e06a0  ..-.~#..........
 2997 00000092 0d00001c 2f064424 0000a00d  ......../.D$....
 29a7 00001d1e 065b0300 00a90d00 00043106  .....[........1.
 29b7 230f0000 bb0d0000 1e1e065b 030000c5  #..........[....
 29c7 0d00001f 2006230f 0000ce0d 00002020  .... .#.......  
 29d7 067b2400 00d80d00 00211e06 230f0000  .{$......!..#...
 29e7 e00d0000 04750691 240000f1 0d000022  .....u..$......"
 29f7 1e065b03 0000f80d 00000478 34080e00  ..[........x4...
 2a07 000f0e00 00076b70 24000001 01012915  ......kp$.....).
 2a17 0e000007 6d7e0600 00010101 0d862400  ....m~........$.
 2a27 000d8624 0000002a 1e0e0000 260e0000  ...$...*....&...
 2a37 07718624 00000101 010ddf24 0000000a  .q.$.......$....
 2a47 b0030000 292d0e00 00077486 24000001  ....)-....t.$...
 2a57 01010df8 24000000 0a862400 0029320e  ....$.....$..)2.
 2a67 0000076a 3f020000 0101010d 1f220000  ...j?........"..
 2a77 00293a0e 0000076c 3f020000 0101010d  .):....l?.......
 2a87 25250000 000a2a25 00000e86 24000029  %%....*%....$..)
 2a97 400e0000 076fdf24 00000101 010d2525  @....o.$......%%
 2aa7 00000029 470e0000 0770df24 00000101  ...)G....p.$....
 2ab7 010d2525 0000002a 510e0000 5b0e0000  ..%%...*Q...[...
 2ac7 07720d0f 00000101 010d3f02 00000d0d  .r........?.....
 2ad7 0f00000d a7020000 0d1f2200 00003500  .........."...5.
 2ae7 00000000 000000d0 00000000 00000001  ................
 2af7 566e0e00 00640e00 00021001 01040000  Vn...d..........
 2b07 00007c10 00000210 680f0000 360391d0  ..|.....h...6...
 2b17 7b761000 000212b4 2e000005 36000000  {v..........6...
 2b27 7f100000 0214e101 0000056f 0000008a  ...........o....
 2b37 10000002 13641400 00376100 00000000  .....d...7a.....
 2b47 00008800 00000000 00003800 93100000  ..........8.....
 2b57 0219e101 00000000 35d00000 00000000  ........5.......
 2b67 001d0100 00000000 0001568c 0e000084  ..........V.....
 2b77 0e000002 23010104 92000000 95100000  ....#...........
 2b87 02233f02 000004c8 00000097 10000002  .#?.............
 2b97 23e10100 00040201 00007c10 00000223  #.........|....#
 2ba7 680f0000 37e40000 00000000 00080100  h...7...........
 2bb7 00000000 00380093 10000002 24e10100  .....8......$...
 2bc7 00000002 90010000 00000000 6d020000  ............m...
 2bd7 00000000 0156d40e 0000c70e 00000284  .....V..........
 2be7 e1010000 0101043c 020000ad 10000002  .......<........
 2bf7 84e10100 00046102 0000b210 00000284  ......a.........
 2c07 64140000 05840200 00b71000 000286e1  d...............
 2c17 01000005 d1020000 bb100000 0287e101  ................
 2c27 00003808 bf100000 0288e101 00000509  ..8.............
 2c37 030000c7 10000002 9dc02e00 0039cd10  .............9..
 2c47 0000029e 8a060000 003a505a 00000000  .........:PZ....
 2c57 00005a5a 00000000 00000156 08270000  ..ZZ.......V.'..
 2c67 e90e0000 a9040000 3b0155d6 100000c0  ........;.U.....
 2c77 2e000001 3c0161db 10000002 717e0600  ....<.a.....q~..
 2c87 003c0162 de100000 02717e06 00003c01  .<.b.....q~...<.
 2c97 63e11000 0002717e 0600003c 0164e410  c.....q~...<.d..
 2ca7 00000271 7e060000 00027002 00000000  ...q~.....p.....
 2cb7 0000fb02 00000000 00000156 040f0000  ...........V....
 2cc7 f90e0000 02a7e101 00000101 042c0300  .............,..
 2cd7 00ad1000 0002a7e1 01000004 51030000  ............Q...
 2ce7 b2100000 02a76414 00000574 030000e7  ......d....t....
 2cf7 10000002 a9c52e00 00059703 0000ec10  ................
 2d07 000002ac 14020000 05ba0300 00f51000  ................
 2d17 0002b2ca 2e000039 0d110000 02ab4d07  .......9......M.
 2d27 0000003a 605a0000 00000000 6a5a0000  ...:`Z......jZ..
 2d37 00000000 0156e227 0000170f 0000b606  .....V.'........
 2d47 00003b01 55d61000 00c52e00 00013c01  ..;.U.........<.
 2d57 61be0300 0002387e 06000000 02000300  a.....8~........
 2d67 00000000 00270500 00000000 00015630  .....'........V0
 2d77 0f000025 0f000002 bde10100 00010104  ...%............
 2d87 e0030000 ad100000 02bde101 00000405  ................
 2d97 040000b2 10000002 bd641400 0038f8ac  .........d...8..
 2da7 d1910115 11000002 c0e10100 00052804  ..............(.
 2db7 00001711 000002c4 e62e0000 054b0400  .............K..
 2dc7 00321100 0002c8c5 2e000005 6e040000  .2..........n...
 2dd7 39110000 02c9072f 00000591 040000c7  9....../........
 2de7 10000002 cac02e00 0005b404 00004111  ..............A.
 2df7 000002da 0c2f0000 05da0400 005a1100  ...../.......Z..
 2e07 0002dd2c 2f000005 00050000 73110000  ...,/.......s...
 2e17 02e0482f 00000526 0500008e 11000002  ..H/...&........
 2e27 e6532f00 00054c05 0000a511 000002e5  .S/...L.........
 2e37 732f0000 003a705a 00000000 00007a5a  s/...:pZ......zZ
 2e47 00000000 00000156 f4280000 430f0000  .......V.(..C...
 2e57 9c070000 3b0155d6 10000007 2f000001  ....;.U...../...
 2e67 3c0161be 03000002 667e0600 003c0162  <.a.....f~...<.b
 2e77 ba110000 02667e06 00003c01 63bc1100  .....f~...<.c...
 2e87 0002667e 06000000 3d300500 00000000  ..f~....=0......
 2e97 00670500 00000000 00015654 0f000002  .g........VT....
 2ea7 f2e10100 00010104 72050000 ad100000  ........r.......
 2eb7 02f2e101 00000497 050000b2 10000002  ................
 2ec7 f2641400 003800be 11000002 f4e10100  .d...8..........
 2ed7 00003a80 5a000000 000000ff 5a000000  ..:.Z.......Z...
 2ee7 00000001 56912900 00590f00 00a90400  ....V.)..Y......
 2ef7 003eba05 0000d610 0000c02e 00000104  .>..............
 2f07 f0050000 db100000 02717e06 00000427  .........q~....'
 2f17 060000de 10000002 717e0600 00045e06  ........q~....^.
 2f27 0000e110 00000271 7e060000 04950600  .......q~.......
 2f37 00e41000 0002717e 06000000 3a005b00  ......q~....:.[.
 2f47 00000000 001b5b00 00000000 000156fb  ......[.......V.
 2f57 29000069 0f000072 0500003b 0155d610  )..i...r...;.U..
 2f67 00001c08 00000100 3a205b00 00000000  ........: [.....
 2f77 00345b00 00000000 00015627 2a000077  .4[.......V'*..w
 2f87 0f000067 0600003b 0155d610 00008a06  ...g...;.U......
 2f97 00000100 3f405b00 00000000 00495b00  ....?@[......I[.
 2fa7 00000000 0001564f 2a0000b8 0500003b  ......VO*......;
 2fb7 0155d610 00001c08 0000013c 03549304  .U.........<.T..
 2fc7 c2110000 025de101 0000003a 505b0000  .....].....:P[..
 2fd7 00000000 565b0000 00000000 01568a2a  ....V[.......V.*
 2fe7 0000890f 00008405 00003b01 55d61000  ..........;.U...
 2ff7 001c0800 0001003a 605b0000 00000000  .......:`[......
 3007 665b0000 00000000 0156b62a 00009d0f  f[.......V.*....
 3017 00003105 00003b01 55d61000 00c02e00  ..1...;.U.......
 3027 0001003a 705b0000 00000000 7a5b0000  ...:p[......z[..
 3037 00000000 0156e22a 0000aa0f 00003105  .....V.*......1.
 3047 00003b01 55d61000 00c02e00 0001003f  ..;.U..........?
 3057 805b0000 00000000 9f5b0000 00000000  .[.......[......
 3067 01560a2b 0000cf04 00003ecc 060000d6  .V.+......>.....
 3077 100000c0 2e000001 003fa05b 00000000  .........?.[....
 3087 0000c75b 00000000 00000156 342b0000  ...[.......V4+..
 3097 f1040000 3eef0600 00d61000 00c02e00  ....>...........
 30a7 0001003f d05b0000 00000000 e45b0000  ...?.[.......[..
 30b7 00000000 01565e2b 00000f05 00003e12  .....V^+......>.
 30c7 070000d6 100000c0 2e000001 0040f05b  .............@.[
 30d7 00000000 0000015c 00000000 00000156  .......\.......V
 30e7 8d2b0000 b80f0000 02740101 013e3507  .+.......t...>5.
 30f7 0000d610 0000c02e 00000100 3a105c00  ............:.\.
 3107 00000000 00165c00 00000000 000156bb  ......\.......V.
 3117 2b0000cf 0f000084 0500003b 0155d610  +..........;.U..
 3127 00001c08 00000100 3a205c00 00000000  ........: \.....
 3137 002a5c00 00000000 000156e7 2b0000dd  .*\.......V.+...
 3147 0f000084 0500003b 0155d610 00001c08  .......;.U......
 3157 00000100 3f305c00 00000000 00465c00  ....?0\......F\.
 3167 00000000 0001560f 2c0000f5 0500003e  ......V.,......>
 3177 58070000 d6100000 1c080000 01003a50  X.............:P
 3187 5c000000 00000056 5c000000 00000001  \......V\.......
 3197 563d2c00 00eb0f00 00310500 003b0155  V=,......1...;.U
 31a7 d6100000 c02e0000 01003f60 5c000000  ..........?`\...
 31b7 00000069 5c000000 00000001 56652c00  ...i\.......Ve,.
 31c7 009e0500 003b0155 d6100000 1c080000  .....;.U........
 31d7 01003a70 5c000000 00000089 5c000000  ..:p\.......\...
 31e7 00000001 56912c00 00f80f00 00b60600  ....V.,.........
 31f7 003b0155 d6100000 c52e0000 013c0161  .;.U.........<.a
 3207 be030000 02387e06 0000003a 905c0000  .....8~....:.\..
 3217 00000000 965c0000 00000000 0156ca2c  .....\.......V.,
 3227 00000610 0000cd06 00003b01 55d61000  ..........;.U...
 3237 00c52e00 0001003a a05c0000 00000000  .......:.\......
 3247 aa5c0000 00000000 0156f62c 00001410  .\.......V.,....
 3257 0000cd06 00003b01 55d61000 00c52e00  ......;.U.......
 3267 0001003f b05c0000 00000000 c85c0000  ...?.\.......\..
 3277 00000000 01561e2d 00000107 00003e7b  .....V.-......>{
 3287 070000d6 100000c5 2e000001 003fd05c  .............?.\
 3297 00000000 0000e15c 00000000 00000156  .......\.......V
 32a7 482d0000 1f070000 3b0155d6 100000c5  H-......;.U.....
 32b7 2e000001 003af05c 00000000 0000f65c  .....:.\.......\
 32c7 00000000 00000156 742d0000 22100000  .......Vt-.."...
 32d7 cd060000 3b0155d6 100000c5 2e000001  ....;.U.........
 32e7 003a005d 00000000 00005f5d 00000000  .:.]......_]....
 32f7 00000156 a02d0000 30100000 9c070000  ...V.-..0.......
 3307 3e9e0700 00d61000 00072f00 000104d4  >........./.....
 3317 070000be 03000002 667e0600 00040b08  ........f~......
 3327 0000ba11 00000266 7e060000 04420800  .......f~....B..
 3337 00bc1100 0002667e 06000000 3a605d00  ......f~....:`].
 3347 00000000 00665d00 00000000 000156fb  .....f].......V.
 3357 2d000049 100000fd 0700003b 0155d610  -..I.......;.U..
 3367 0000072f 00000100 3a705d00 00000000  .../....:p].....
 3377 007a5d00 00000000 00015627 2e000058  .z].......V'...X
 3387 100000fd 0700003b 0155d610 0000072f  .......;.U...../
 3397 00000100 3f805d00 00000000 009f5d00  ....?.].......].
 33a7 00000000 0001564f 2e0000bd 0700003e  ......VO.......>
 33b7 79080000 d6100000 072f0000 01003fa0  y......../....?.
 33c7 5d000000 000000c2 5d000000 00000001  ].......].......
 33d7 56792e00 00df0700 003e9c08 0000d610  Vy.......>......
 33e7 0000072f 00000100 3ad05d00 00000000  .../....:.].....
 33f7 00d65d00 00000000 000156a7 2e000067  ..].......V....g
 3407 100000fd 0700003b 0155d610 0000072f  .......;.U...../
 3417 00000100 10140200 0011c802 00004000  ..............@.
 3427 0a530400 000a8f06 000006d5 2e0000fb  .S..............
 3437 10000002 7c41de2e 00008f06 0000421a  ....|A........B.
 3447 3e070000 010006f1 2e000022 11000002  >.........."....
 3457 0e0af62e 0000420d 3f020000 0de10100  ......B.?.......
 3467 000d680f 0000000a 5d070000 06172f00  ..h.....]...../.
 3477 00491100 00027d41 202f0000 53040000  .I....}A /..S...
 3487 0ce10100 001a8506 00000100 06372f00  .............7/.
 3497 00621100 00027e41 402f0000 53040000  .b....~A@/..S...
 34a7 421a8506 00000100 06172f00 007c1100  B........./..|..
 34b7 00027f06 5e2f0000 98110000 02814167  ....^/........Ag
 34c7 2f00002c 0600000c e1010000 1a790600  /..,.........y..
 34d7 00010006 7e2f0000 ae110000 02824187  ....~/........A.
 34e7 2f00004b 0500000c e1010000 1a270600  /..K.........'..
 34f7 00010000                             ....            
Contents of section .debug_abbrev:
 34fb 01110125 0e130503 0e10061b 0ee17f0c  ...%............
 350b 11015506 0000022e 01110112 01400a87  ..U..........@..
 351b 400e030e 3a0b3b0b 49133f0c e17f0c00  @...:.;.I.?.....
 352b 00033400 030e4913 3a0b3b0b 020a0000  ..4...I.:.;.....
 353b 04050002 06030e3a 0b3b0b49 13000005  .......:.;.I....
 354b 34000206 030e3a0b 3b0b4913 00000616  4.....:.;.I.....
 355b 00491303 0e3a0b3b 0b000007 2400030e  .I...:.;....$...
 356b 3e0b0b0b 00000813 01030e0b 0b3a0b3b  >............:.;
 357b 0b000009 0d00030e 49133a0b 3b0b380a  ........I.:.;.8.
 358b 00000a0f 00491300 000b0f00 00000c15  .....I..........
 359b 01491300 000d0500 49130000 0e260049  .I......I....&.I
 35ab 1300000f 1300030e 3c0c0000 10010149  ........<......I
 35bb 13000011 21004913 370b0000 12240003  ....!.I.7....$..
 35cb 0e0b0b3e 0b000013 1301030e 0b0b0000  ...>............
 35db 140d0003 0e491338 0a000015 13010b0b  .....I.8........
 35eb 3a0b3b0b 00001617 010b0b3a 0b3b0b00  :.;........:.;..
 35fb 00170201 1d13030e 0b0b3a0b 3b0b0000  ..........:.;...
 360b 181c0049 13380a32 0b000019 2e01030e  ...I.8.2........
 361b 3a0b3b0b 3c0c3f0c e17f0c32 0b00001a  :.;.<.?....2....
 362b 05004913 340c0000 1b2e0187 400e030e  ..I.4.......@...
 363b 3a0b3b0b 49134c0b 4d0a3c0c 3f0ce17f  :.;.I.L.M.<.?...
 364b 0c320b1d 1300001c 2e018740 0e030e3a  .2.........@...:
 365b 0b3b0b4c 0b4d0a3c 0c3f0ce1 7f0c320b  .;.L.M.<.?....2.
 366b 1d130000 1d2e0103 0e4c0b4d 0a3c0c34  .........L.M.<.4
 367b 0c3f0ce1 7f0c320b 1d130000 1e0d0003  .?....2.........
 368b 0e491338 0a340c00 001f2e01 030e3a0b  .I.8.4........:.
 369b 3b0b4c0b 4d0a3c0c 3f0ce17f 0c320b1d  ;.L.M.<.?....2..
 36ab 13000020 2e018740 0e030e3a 0b3b0b49  ... ...@...:.;.I
 36bb 133c0c3f 0ce17f0c 320b0000 212e0187  .<.?....2...!...
 36cb 400e030e 3a0b3b0b 3c0c3f0c e17f0c32  @...:.;.<.?....2
 36db 0b000022 0f004913 030e0000 23150049  ..."..I.....#..I
 36eb 13000024 2e01030e 3c0c340c 3f0ce17f  ...$....<.4.?...
 36fb 0c320b00 00253901 030e3a0b 3b050000  .2...%9...:.;...
 370b 2608003a 0b3b0b18 13000027 2e01030e  &..:.;.....'....
 371b 3a0b3b05 49133c0c 3f0ce17f 0c000028  :.;.I.<.?......(
 372b 2e00030e 3a0b3b05 49133c0c 3f0ce17f  ....:.;.I.<.?...
 373b 0c000029 2e01030e 3a0b3b0b 49133c0c  ...)....:.;.I.<.
 374b 3f0ce17f 0c00002a 2e018740 0e030e3a  ?......*...@...:
 375b 0b3b0b49 133c0c3f 0ce17f0c 00002b2e  .;.I.<.?......+.
 376b 01030e3a 0b3b053c 0c3f0ce1 7f0c0000  ...:.;.<.?......
 377b 2c180000 002d1600 4913030e 00002e26  ,....-..I......&
 378b 0000002f 2e01030e 3a0b3b0b 3c0c3f0c  .../....:.;.<.?.
 379b e17f0c00 00302e00 030e3a0b 3b0b4913  .....0....:.;.I.
 37ab 3c0c3f0c e17f0c00 00312e00 030e3a0b  <.?......1....:.
 37bb 3b0b3c0c 3f0ce17f 0c000032 15000000  ;.<.?......2....
 37cb 332e0187 400e030e 3a0b3b05 49133c0c  3...@...:.;.I.<.
 37db 3f0ce17f 0c000034 2e008740 0e030e3a  ?......4...@...:
 37eb 0b3b0b49 133c0c3f 0ce17f0c 0000352e  .;.I.<.?......5.
 37fb 01110112 01400a87 400e030e 3a0b3b0b  .....@..@...:.;.
 380b 3f0ce17f 0c000036 3400020a 030e3a0b  ?......64.....:.
 381b 3b0b4913 0000370b 01110112 01000038  ;.I...7........8
 382b 34001c0d 030e3a0b 3b0b4913 00003934  4.....:.;.I...94
 383b 00030e3a 0b3b0b49 1300003a 2e011101  ...:.;.I...:....
 384b 1201400a 64138740 0e471300 003b0500  ..@.d..@.G...;..
 385b 020a030e 4913340c 00003c05 00020a03  ....I.4...<.....
 386b 0e3a0b3b 0b491300 003d2e01 11011201  .:.;.I...=......
 387b 400a030e 3a0b3b0b 49133f0c e17f0c00  @...:.;.I.?.....
 388b 003e0500 0206030e 4913340c 00003f2e  .>......I.4...?.
 389b 01110112 01400a64 13471300 00402e01  .....@.d.G...@..
 38ab 11011201 400a6413 87400e3a 0b3b0b34  ....@.d..@.:.;.4
 38bb 0c3f0ce1 7f0c0000 411f0049 131d1300  .?......A..I....
 38cb 00421501 000000                      .B.....         
Contents of section .debug_line:
 38d2 04060000 02002003 00000101 fb0e0d00  ...... .........
 38e2 01010101 00000001 0000012f 7573722f  .........../usr/
 38f2 696e636c 7564652f 5f747970 65730074  include/_types.t
 3902 65737400 2f757372 2f696e63 6c756465  est./usr/include
 3912 002f7573 722f696e 636c7564 652f6933  ./usr/include/i3
 3922 3836002f 7573722f 696e636c 7564652f  86./usr/include/
 3932 73797300 2f417070 6c696361 74696f6e  sys./Application
 3942 732f5863 6f64652e 6170702f 436f6e74  s/Xcode.app/Cont
 3952 656e7473 2f446576 656c6f70 65722f54  ents/Developer/T
 3962 6f6f6c63 6861696e 732f5863 6f646544  oolchains/XcodeD
 3972 65666175 6c742e78 63746f6f 6c636861  efault.xctoolcha
 3982 696e2f75 73722f62 696e2f2e 2e2f696e  in/usr/bin/../in
 3992 636c7564 652f632b 2b2f7631 002f7573  clude/c++/v1./us
 39a2 722f696e 636c7564 652f7379 732f5f74  r/include/sys/_t
 39b2 79706573 002f4170 706c6963 6174696f  ypes./Applicatio
 39c2 6e732f58 636f6465 2e617070 2f436f6e  ns/Xcode.app/Con
 39d2 74656e74 732f4465 76656c6f 7065722f  tents/Developer/
 39e2 546f6f6c 63686169 6e732f58 636f6465  Toolchains/Xcode
 39f2 44656661 756c742e 7863746f 6f6c6368  Default.xctoolch
 3a02 61696e2f 7573722f 62696e2f 2e2e2f6c  ain/usr/bin/../l
 3a12 69622f63 6c616e67 2f372e30 2e322f69  ib/clang/7.0.2/i
 3a22 6e636c75 64650000 5f75696e 7436345f  nclude.._uint64_
 3a32 742e6800 01000066 756e6374 696f6e5f  t.h....function_
 3a42 7074725f 74657374 2e637070 00020000  ptr_test.cpp....
 3a52 73746469 6f2e6800 0300005f 74797065  stdio.h...._type
 3a62 732e6800 0400005f 74797065 732e6800  s.h...._types.h.
 3a72 05000073 74646c69 622e6800 03000074  ...stdlib.h....t
 3a82 696d652e 68000300 005f5f63 6f6e6669  ime.h....__confi
 3a92 67000600 005f7369 7a655f74 2e680007  g...._size_t.h..
 3aa2 00007374 72696e67 2e680003 00006374  ..string.h....ct
 3ab2 7970652e 68000300 005f7769 6e745f74  ype.h...._wint_t
 3ac2 2e680007 00005f74 79706573 2e680003  .h...._types.h..
 3ad2 00005f77 63747261 6e735f74 2e680001  .._wctrans_t.h..
 3ae2 00005f77 63747970 655f742e 68000100  .._wctype_t.h...
 3af2 005f7763 74797065 2e680003 00007763  ._wctype.h....wc
 3b02 74797065 2e680003 00005f6d 62737461  type.h...._mbsta
 3b12 74655f74 2e680007 00007763 6861722e  te_t.h....wchar.
 3b22 68000300 00737464 6465662e 68000800  h....stddef.h...
 3b32 005f696e 74385f74 2e680007 00005f69  ._int8_t.h...._i
 3b42 6e743136 5f742e68 00070000 5f696e74  nt16_t.h...._int
 3b52 33325f74 2e680007 00005f69 6e743634  32_t.h...._int64
 3b62 5f742e68 00070000 5f75696e 74385f74  _t.h...._uint8_t
 3b72 2e680001 00005f75 696e7431 365f742e  .h...._uint16_t.
 3b82 68000100 005f7569 6e743332 5f742e68  h...._uint32_t.h
 3b92 00010000 73746469 6e742e68 00030000  ....stdint.h....
 3ba2 5f696e74 7074725f 742e6800 0700005f  _intptr_t.h...._
 3bb2 75696e74 7074725f 742e6800 0700005f  uintptr_t.h...._
 3bc2 696e746d 61785f74 2e680001 00005f75  intmax_t.h...._u
 3bd2 696e746d 61785f74 2e680001 00005f63  intmax_t.h...._c
 3be2 6c6f636b 5f742e68 00070000 5f74696d  lock_t.h...._tim
 3bf2 655f742e 68000700 00000402 00090200  e_t.h...........
 3c02 00000000 00000003 10010512 0a023117  ..............1.
 3c12 05109f05 05c90883 05094c05 1d06ac05  ..........L.....
 3c22 09580505 06aa8708 84050108 75050008  .X..........u...
 3c32 6805020a 083d0506 59051b06 74050658  h....=..Y...t..X
 3c42 050206ab cb050008 3105150a 084e050e  ........1....N..
 3c52 83050208 14089105 09e50502 06660500  .............f..
 3c62 0603d100 082e0506 0a4c9105 0276082f  .........L...v./
 3c72 05190860 0502063c 050b06da 05023a79  ...`...<......:y
 3c82 d8051008 e6051406 02281205 24068305  .........(..$...
 3c92 024b0813 af0500a2 05100abc 051406f2  .K..............
 3ca2 05130685 05024c08 2f081308 15084b92  ......L./.....K.
 3cb2 af0500a3 05060a4c 05020821 02231605  .......L...!.#..
 3cc2 1cd70502 06e40512 06ca0516 06f20514  ................
 3cd2 06c90518 0608e405 1006c905 14060874  ...............t
 3ce2 05020608 7608bc08 5a085993 08590550  ....v...Z.Y..Y.P
 3cf2 92050206 4a060832 93939202 3e17084b  ....J..2....>..K
 3d02 084c9191 91086705 00085c05 0c0a4b05  .L....g...\...K.
 3d12 08590502 590507f4 05025905 01082302  .Y..Y.....Y...#.
 3d22 02000101 04020009 02505a00 00000000  .........PZ.....
 3d32 0003f000 0105730a 4a050003 8f7f2003  ......s.J..... .
 3d42 38ac0519 0a4a0500 03482003 e600ac05  8....J...H .....
 3d52 5b0a4a05 00039a7f 2003f100 ac05340a  [.J..... .....4.
 3d62 08e40573 06580502 4a057358 053c0858  ...s.X..J.sX.<.X
 3d72 054b9e05 5a9e0567 9e0574e4 05000603  .K..Z..g..t.....
 3d82 69e40516 0a4a050b 06d60517 74050006  i....J......t...
 3d92 03777405 070a4a05 00030c08 ac05250a  .wt...J.......%.
 3da2 4a052e06 3c050006 8e05140a 4a050003  J...<.......J...
 3db2 14ba0507 0a4a0500 ba05070a 4a050003  .....J......J...
 3dc2 917f2003 f200ac05 3e0a4a05 17067405  .. .....>.J...t.
 3dd2 4b082005 00063d05 4b0a4a05 56065805  K. ...=.K.J.V.X.
 3de2 6158056a 58051858 05000608 7505180a  aX.jX..X....u...
 3df2 4a053106 d6050006 d6050e0a 4a050003  J.1.........J...
 3e02 6708ac05 140a4a05 00ba0513 0a4a0500  g.....J......J..
 3e12 03a57f20 03df00ac 05380a4a 0518063c  ... .....8.J...<
 3e22 05000603 10088205 070a4a05 00036dba  ..........J...m.
 3e32 05190a4a 0512063c 05000603 5c900519  ...J...<....\...
 3e42 0a4a0512 06d6051a 58050006 9105140a  .J......X.......
 3e52 4a0500ba 05130a4a 05000347 20033cac  J......J...G .<.
 3e62 05350a4a 05180658 05000608 6705180a  .5.J...X....g...
 3e72 4a050008 a805140a 4a050003 2dba0528  J.......J...-..(
 3e82 0a089e05 5b065805 31d60540 9e054f9e  ....[.X.1..@..O.
 3e92 055de405 0006e205 070a4a05 00ba0507  .]........J.....
 3ea2 0a4a0500 039c7f20 03e700ac 05430a4a  .J..... .....C.J
 3eb2 05170674 05500820 0500063d 05430a4a  ...t.P. ...=.C.J
 3ec2 054f0658 055b5805 18580500 0608b605  .O.X.[X..X......
 3ed2 070a4a02 02000101                    ..J.....        
Contents of section .debug_str:
 3eda 4170706c 65204c4c 564d2076 65727369  Apple LLVM versi
 3eea 6f6e2037 2e302e32 2028636c 616e672d  on 7.0.2 (clang-
 3efa 3730302e 312e3831 29007465 73742f66  700.1.81).test/f
 3f0a 756e6374 696f6e5f 7074725f 74657374  unction_ptr_test
 3f1a 2e637070 002f5573 6572732f 77616c74  .cpp./Users/walt
 3f2a 65722f44 6f63756d 656e7473 2f776f72  er/Documents/wor
 3f3a 6b737061 63652f63 70702f73 6e697070  kspace/cpp/snipp
 3f4a 6574732f 63707000 746f7461 6c5f636f  ets/cpp.total_co
 3f5a 756e7400 75696e74 36345f74 006c6f6e  unt.uint64_t.lon
 3f6a 67206c6f 6e672075 6e736967 6e656420  g long unsigned 
 3f7a 696e7400 5f5f7346 494c4500 5f700075  int.__sFILE._p.u
 3f8a 6e736967 6e656420 63686172 005f7200  nsigned char._r.
 3f9a 696e7400 5f77005f 666c6167 73007368  int._w._flags.sh
 3faa 6f727400 5f66696c 65005f62 66005f5f  ort._file._bf.__
 3fba 73627566 005f6261 7365005f 73697a65  sbuf._base._size
 3fca 005f6c62 6673697a 65005f63 6f6f6b69  ._lbfsize._cooki
 3fda 65005f63 6c6f7365 005f7265 61640063  e._close._read.c
 3fea 68617200 5f736565 6b006670 6f735f74  har._seek.fpos_t
 3ffa 005f5f64 61727769 6e5f6f66 665f7400  .__darwin_off_t.
 400a 5f5f696e 7436345f 74006c6f 6e67206c  __int64_t.long l
 401a 6f6e6720 696e7400 5f777269 7465005f  ong int._write._
 402a 7562005f 65787472 61005f5f 7346494c  ub._extra.__sFIL
 403a 4558005f 7572005f 75627566 0073697a  EX._ur._ubuf.siz
 404a 65747970 65005f6e 62756600 5f6c6200  etype._nbuf._lb.
 405a 5f626c6b 73697a65 005f6f66 66736574  _blksize._offset
 406a 005f5f76 615f6c69 73745f74 61670067  .__va_list_tag.g
 407a 705f6f66 66736574 00756e73 69676e65  p_offset.unsigne
 408a 6420696e 74006670 5f6f6666 73657400  d int.fp_offset.
 409a 6f766572 666c6f77 5f617267 5f617265  overflow_arg_are
 40aa 61007265 675f7361 76655f61 72656100  a.reg_save_area.
 40ba 71756f74 0072656d 006c6f6e 6720696e  quot.rem.long in
 40ca 74005f5f 6d627374 61746538 005f6d62  t.__mbstate8._mb
 40da 73746174 654c0074 6d00746d 5f736563  stateL.tm.tm_sec
 40ea 00746d5f 6d696e00 746d5f68 6f757200  .tm_min.tm_hour.
 40fa 746d5f6d 64617900 746d5f6d 6f6e0074  tm_mday.tm_mon.t
 410a 6d5f7965 61720074 6d5f7764 61790074  m_year.tm_wday.t
 411a 6d5f7964 61790074 6d5f6973 64737400  m_yday.tm_isdst.
 412a 746d5f67 6d746f66 6600746d 5f7a6f6e  tm_gmtoff.tm_zon
 413a 65004c69 6e650053 68617065 005f7670  e.Line.Shape._vp
 414a 74722453 68617065 005f5f76 74626c5f  tr$Shape.__vtbl_
 415a 7074725f 74797065 006d5f63 6f6c6f72  ptr_type.m_color
 416a 007e5368 61706500 5f5a4e35 53686170  .~Shape._ZN5Shap
 417a 65384765 74436f6c 6f724576 00476574  e8GetColorEv.Get
 418a 436f6c6f 72005f5a 4e355368 61706538  Color._ZN5Shape8
 419a 53657443 6f6c6f72 45690053 6574436f  SetColorEi.SetCo
 41aa 6c6f7200 5f5a4e35 53686170 65346472  lor._ZN5Shape4dr
 41ba 61774576 00647261 77005f5a 4e355368  awEv.draw._ZN5Sh
 41ca 61706534 64756d70 45760064 756d7000  ape4dumpEv.dump.
 41da 5072696e 7461626c 65005f76 70747224  Printable._vptr$
 41ea 5072696e 7461626c 65005f5a 4e395072  Printable._ZN9Pr
 41fa 696e7461 626c6535 7072696e 74457600  intable5printEv.
 420a 7072696e 74006d5f 73746172 745f7800  print.m_start_x.
 421a 646f7562 6c65006d 5f737461 72745f79  double.m_start_y
 422a 006d5f65 6e645f78 006d5f65 6e645f79  .m_end_x.m_end_y
 423a 005f5a4e 344c696e 65346472 61774576  ._ZN4Line4drawEv
 424a 005f5a4e 344c696e 65346475 6d704576  ._ZN4Line4dumpEv
 425a 005f5a4e 344c696e 65357072 696e7445  ._ZN4Line5printE
 426a 7600506f 696e7400 5f767074 7224506f  v.Point._vptr$Po
 427a 696e7400 6d5f7800 7e506f69 6e74005f  int.m_x.~Point._
 428a 5a4e4b35 506f696e 74317845 76007800  ZNK5Point1xEv.x.
 429a 5f5a4e35 506f696e 74346475 6d704576  _ZN5Point4dumpEv
 42aa 005f5a4e 35506f69 6e74346d 6f766545  ._ZN5Point4moveE
 42ba 76006d6f 76650056 50545200 43697263  v.move.VPTR.Circ
 42ca 6c65006d 5f63656e 7465725f 78006d5f  le.m_center_x.m_
 42da 63656e74 65725f79 006d5f72 61646975  center_y.m_radiu
 42ea 73005f5a 4e364369 72636c65 34647261  s._ZN6Circle4dra
 42fa 77457600 5f5a4e36 43697263 6c653464  wEv._ZN6Circle4d
 430a 756d7045 76007374 64005f5f 31004649  umpEv.std.__1.FI
 431a 4c450073 697a655f 74005f5f 64617277  LE.size_t.__darw
 432a 696e5f73 697a655f 74006c6f 6e672075  in_size_t.long u
 433a 6e736967 6e656420 696e7400 72656d6f  nsigned int.remo
 434a 76650072 656e616d 6500746d 7066696c  ve.rename.tmpfil
 435a 6500746d 706e616d 0066636c 6f736500  e.tmpnam.fclose.
 436a 66666c75 7368005f 666f7065 6e00666f  fflush._fopen.fo
 437a 70656e00 5f667265 6f70656e 00667265  pen._freopen.fre
 438a 6f70656e 00736574 62756600 73657476  open.setbuf.setv
 439a 62756600 66707269 6e746600 66736361  buf.fprintf.fsca
 43aa 6e660070 72696e74 66007363 616e6600  nf.printf.scanf.
 43ba 736e7072 696e7466 00737072 696e7466  snprintf.sprintf
 43ca 00737363 616e6600 76667072 696e7466  .sscanf.vfprintf
 43da 00766673 63616e66 00767363 616e6600  .vfscanf.vscanf.
 43ea 76737363 616e6600 76707269 6e746600  vsscanf.vprintf.
 43fa 76736e70 72696e74 66007673 7072696e  vsnprintf.vsprin
 440a 74660066 67657463 00666765 74730066  tf.fgetc.fgets.f
 441a 70757463 005f6670 75747300 66707574  putc._fputs.fput
 442a 73006765 74630067 65746368 61720067  s.getc.getchar.g
 443a 65747300 70757463 00707574 63686172  ets.putc.putchar
 444a 00707574 7300756e 67657463 00667265  .puts.ungetc.fre
 445a 6164005f 66777269 74650066 77726974  ad._fwrite.fwrit
 446a 65006667 6574706f 73006673 65656b00  e.fgetpos.fseek.
 447a 66736574 706f7300 6674656c 6c007265  fsetpos.ftell.re
 448a 77696e64 00636c65 61726572 72006665  wind.clearerr.fe
 449a 6f660066 6572726f 72007065 72726f72  of.ferror.perror
 44aa 00646976 5f74006c 6469765f 74006c6c  .div_t.ldiv_t.ll
 44ba 6469765f 74006174 6f660061 746f6900  div_t.atof.atoi.
 44ca 61746f6c 0061746f 6c6c005f 73747274  atol.atoll._strt
 44da 6f640073 7472746f 64005f73 7472746f  od.strtod._strto
 44ea 66007374 72746f66 00666c6f 61740073  f.strtof.float.s
 44fa 7472746f 6c64006c 6f6e6720 646f7562  trtold.long doub
 450a 6c650073 7472746f 6c007374 72746f6c  le.strtol.strtol
 451a 6c007374 72746f75 6c007374 72746f75  l.strtoul.strtou
 452a 6c6c0072 616e6400 7372616e 64006361  ll.rand.srand.ca
 453a 6c6c6f63 00667265 65006d61 6c6c6f63  lloc.free.malloc
 454a 00726561 6c6c6f63 0061626f 72740061  .realloc.abort.a
 455a 74657869 74006578 6974005f 45786974  texit.exit._Exit
 456a 00676574 656e7600 5f737973 74656d00  .getenv._system.
 457a 73797374 656d0062 73656172 63680071  system.bsearch.q
 458a 736f7274 00616273 006c6162 73006c6c  sort.abs.labs.ll
 459a 61627300 64697600 6c646976 006c6c64  abs.div.ldiv.lld
 45aa 6976006d 626c656e 006d6274 6f776300  iv.mblen.mbtowc.
 45ba 77636861 725f7400 7763746f 6d62006d  wchar_t.wctomb.m
 45ca 6273746f 77637300 77637374 6f6d6273  bstowcs.wcstombs
 45da 006d656d 63707900 6d656d6d 6f766500  .memcpy.memmove.
 45ea 73747263 70790073 74726e63 70790073  strcpy.strncpy.s
 45fa 74726361 74007374 726e6361 74006d65  trcat.strncat.me
 460a 6d636d70 00737472 636d7000 7374726e  mcmp.strcmp.strn
 461a 636d7000 73747263 6f6c6c00 73747278  cmp.strcoll.strx
 462a 66726d00 6d656d63 68720073 74726368  frm.memchr.strch
 463a 72007374 72637370 6e007374 72706272  r.strcspn.strpbr
 464a 6b007374 72726368 72007374 7273706e  k.strrchr.strspn
 465a 00737472 73747200 73747274 6f6b006d  .strstr.strtok.m
 466a 656d7365 74005f73 74726572 726f7200  emset._strerror.
 467a 73747265 72726f72 00737472 6c656e00  strerror.strlen.
 468a 5f5a3769 73616c6e 756d6900 6973616c  _Z7isalnumi.isal
 469a 6e756d00 5f5a3769 73616c70 68616900  num._Z7isalphai.
 46aa 6973616c 70686100 5f5a3769 73626c61  isalpha._Z7isbla
 46ba 6e6b6900 6973626c 616e6b00 5f5a3769  nki.isblank._Z7i
 46ca 73636e74 726c6900 6973636e 74726c00  scntrli.iscntrl.
 46da 5f5a3769 73646967 69746900 69736469  _Z7isdigiti.isdi
 46ea 67697400 5f5a3769 73677261 70686900  git._Z7isgraphi.
 46fa 69736772 61706800 5f5a3769 736c6f77  isgraph._Z7islow
 470a 65726900 69736c6f 77657200 5f5a3769  eri.islower._Z7i
 471a 73707269 6e746900 69737072 696e7400  sprinti.isprint.
 472a 5f5a3769 7370756e 63746900 69737075  _Z7ispuncti.ispu
 473a 6e637400 5f5a3769 73737061 63656900  nct._Z7isspacei.
 474a 69737370 61636500 5f5a3769 73757070  isspace._Z7isupp
 475a 65726900 69737570 70657200 5f5a3869  eri.isupper._Z8i
 476a 73786469 67697469 00697378 64696769  sxdigiti.isxdigi
 477a 74005f5a 37746f6c 6f776572 6900746f  t._Z7toloweri.to
 478a 6c6f7765 72005f5a 37746f75 70706572  lower._Z7toupper
 479a 6900746f 75707065 72007769 6e745f74  i.toupper.wint_t
 47aa 005f5f64 61727769 6e5f7769 6e745f74  .__darwin_wint_t
 47ba 00776374 72616e73 5f74005f 5f646172  .wctrans_t.__dar
 47ca 77696e5f 77637472 616e735f 74007763  win_wctrans_t.wc
 47da 74797065 5f74005f 5f646172 77696e5f  type_t.__darwin_
 47ea 77637479 70655f74 005f5f75 696e7433  wctype_t.__uint3
 47fa 325f7400 5f5a3869 7377616c 6e756d69  2_t._Z8iswalnumi
 480a 00697377 616c6e75 6d005f5a 38697377  .iswalnum._Z8isw
 481a 616c7068 61690069 7377616c 70686100  alphai.iswalpha.
 482a 5f5a3869 7377626c 616e6b69 00697377  _Z8iswblanki.isw
 483a 626c616e 6b005f5a 38697377 636e7472  blank._Z8iswcntr
 484a 6c690069 7377636e 74726c00 5f5a3869  li.iswcntrl._Z8i
 485a 73776469 67697469 00697377 64696769  swdigiti.iswdigi
 486a 74005f5a 38697377 67726170 68690069  t._Z8iswgraphi.i
 487a 73776772 61706800 5f5a3869 73776c6f  swgraph._Z8iswlo
 488a 77657269 00697377 6c6f7765 72005f5a  weri.iswlower._Z
 489a 38697377 7072696e 74690069 73777072  8iswprinti.iswpr
 48aa 696e7400 5f5a3869 73777075 6e637469  int._Z8iswpuncti
 48ba 00697377 70756e63 74005f5a 38697377  .iswpunct._Z8isw
 48ca 73706163 65690069 73777370 61636500  spacei.iswspace.
 48da 5f5a3869 73777570 70657269 00697377  _Z8iswupperi.isw
 48ea 75707065 72005f5a 39697377 78646967  upper._Z9iswxdig
 48fa 69746900 69737778 64696769 74005f5a  iti.iswxdigit._Z
 490a 38697377 63747970 65696a00 69737763  8iswctypeij.iswc
 491a 74797065 00776374 79706500 5f5a3874  type.wctype._Z8t
 492a 6f776c6f 77657269 00746f77 6c6f7765  owloweri.towlowe
 493a 72005f5a 38746f77 75707065 72690074  r._Z8towupperi.t
 494a 6f777570 70657200 746f7763 7472616e  owupper.towctran
 495a 73007763 7472616e 73006d62 73746174  s.wctrans.mbstat
 496a 655f7400 5f5f6461 7277696e 5f6d6273  e_t.__darwin_mbs
 497a 74617465 5f74005f 5f6d6273 74617465  tate_t.__mbstate
 498a 5f740066 77707269 6e746600 66777363  _t.fwprintf.fwsc
 499a 616e6600 73777072 696e7466 00766677  anf.swprintf.vfw
 49aa 7072696e 74660076 73777072 696e7466  printf.vswprintf
 49ba 00767770 72696e74 66007377 7363616e  .vwprintf.swscan
 49ca 66007666 77736361 6e660076 73777363  f.vfwscanf.vswsc
 49da 616e6600 76777363 616e6600 77707269  anf.vwscanf.wpri
 49ea 6e746600 77736361 6e660066 67657477  ntf.wscanf.fgetw
 49fa 63006667 65747773 00667075 74776300  c.fgetws.fputwc.
 4a0a 66707574 77730066 77696465 00676574  fputws.fwide.get
 4a1a 77630067 65747763 68617200 70757477  wc.getwchar.putw
 4a2a 63007075 74776368 61720075 6e676574  c.putwchar.unget
 4a3a 77630077 6373746f 64007763 73746f66  wc.wcstod.wcstof
 4a4a 00776373 746f6c64 00776373 746f6c00  .wcstold.wcstol.
 4a5a 77637374 6f6c6c00 77637374 6f756c00  wcstoll.wcstoul.
 4a6a 77637374 6f756c6c 00776373 63707900  wcstoull.wcscpy.
 4a7a 7763736e 63707900 77637363 61740077  wcsncpy.wcscat.w
 4a8a 63736e63 61740077 6373636d 70007763  csncat.wcscmp.wc
 4a9a 73636f6c 6c007763 736e636d 70007763  scoll.wcsncmp.wc
 4aaa 73786672 6d007763 73637370 6e007763  sxfrm.wcscspn.wc
 4aba 736c656e 00776373 73706e00 77637374  slen.wcsspn.wcst
 4aca 6f6b0077 6d656d63 6d700077 6d656d63  ok.wmemcmp.wmemc
 4ada 70790077 6d656d6d 6f766500 776d656d  py.wmemmove.wmem
 4aea 73657400 5f776373 6674696d 65007763  set._wcsftime.wc
 4afa 73667469 6d650062 746f7763 00776374  sftime.btowc.wct
 4b0a 6f62006d 6273696e 6974006d 62726c65  ob.mbsinit.mbrle
 4b1a 6e006d62 72746f77 63007763 72746f6d  n.mbrtowc.wcrtom
 4b2a 62006d62 7372746f 77637300 77637372  b.mbsrtowcs.wcsr
 4b3a 746f6d62 73007074 72646966 665f7400  tombs.ptrdiff_t.
 4b4a 696e7438 5f740073 69676e65 64206368  int8_t.signed ch
 4b5a 61720069 6e743136 5f740069 6e743332  ar.int16_t.int32
 4b6a 5f740069 6e743634 5f740075 696e7438  _t.int64_t.uint8
 4b7a 5f740075 696e7431 365f7400 756e7369  _t.uint16_t.unsi
 4b8a 676e6564 2073686f 72740075 696e7433  gned short.uint3
 4b9a 325f7400 696e745f 6c656173 74385f74  2_t.int_least8_t
 4baa 00696e74 5f6c6561 73743136 5f740069  .int_least16_t.i
 4bba 6e745f6c 65617374 33325f74 00696e74  nt_least32_t.int
 4bca 5f6c6561 73743634 5f740075 696e745f  _least64_t.uint_
 4bda 6c656173 74385f74 0075696e 745f6c65  least8_t.uint_le
 4bea 61737431 365f7400 75696e74 5f6c6561  ast16_t.uint_lea
 4bfa 73743332 5f740075 696e745f 6c656173  st32_t.uint_leas
 4c0a 7436345f 7400696e 745f6661 7374385f  t64_t.int_fast8_
 4c1a 7400696e 745f6661 73743136 5f740069  t.int_fast16_t.i
 4c2a 6e745f66 61737433 325f7400 696e745f  nt_fast32_t.int_
 4c3a 66617374 36345f74 0075696e 745f6661  fast64_t.uint_fa
 4c4a 7374385f 74007569 6e745f66 61737431  st8_t.uint_fast1
 4c5a 365f7400 75696e74 5f666173 7433325f  6_t.uint_fast32_
 4c6a 74007569 6e745f66 61737436 345f7400  t.uint_fast64_t.
 4c7a 696e7470 74725f74 005f5f64 61727769  intptr_t.__darwi
 4c8a 6e5f696e 74707472 5f740075 696e7470  n_intptr_t.uintp
 4c9a 74725f74 00696e74 6d61785f 74007569  tr_t.intmax_t.ui
 4caa 6e746d61 785f7400 636c6f63 6b5f7400  ntmax_t.clock_t.
 4cba 5f5f6461 7277696e 5f636c6f 636b5f74  __darwin_clock_t
 4cca 0074696d 655f7400 5f5f6461 7277696e  .time_t.__darwin
 4cda 5f74696d 655f7400 5f636c6f 636b0063  _time_t._clock.c
 4cea 6c6f636b 00646966 6674696d 65005f6d  lock.difftime._m
 4cfa 6b74696d 65006d6b 74696d65 0074696d  ktime.mktime.tim
 4d0a 65006173 6374696d 65006374 696d6500  e.asctime.ctime.
 4d1a 676d7469 6d65006c 6f63616c 74696d65  gmtime.localtime
 4d2a 005f7374 72667469 6d650073 74726674  ._strftime.strft
 4d3a 696d6500 73746163 6b64756d 70005f5a  ime.stackdump._Z
 4d4a 39737461 636b6475 6d705037 5f5f7346  9stackdumpP7__sF
 4d5a 494c4500 68657864 756d7000 5f5a3768  ILE.hexdump._Z7h
 4d6a 65786475 6d705063 6950375f 5f734649  exdumpPciP7__sFI
 4d7a 4c450073 74617469 73746963 005f5a39  LE.statistic._Z9
 4d8a 73746174 69737469 63504b63 6950375f  statisticPKciP7_
 4d9a 5f734649 4c450074 6573745f 61646472  _sFILE.test_addr
 4daa 65737300 5f5a3132 74657374 5f616464  ess._Z12test_add
 4dba 72657373 69505063 005f5a4e 344c696e  ressiPPc._ZN4Lin
 4dca 65433145 64646464 00746573 745f706f  eC1Edddd.test_po
 4dda 696e7400 5f5a3130 74657374 5f706f69  int._Z10test_poi
 4dea 6e746950 5063005f 5a4e3550 6f696e74  ntiPPc._ZN5Point
 4dfa 43314564 00746573 745f7368 61706500  C1Ed.test_shape.
 4e0a 5f5a3130 74657374 5f736861 70656950  _Z10test_shapeiP
 4e1a 5063005f 5a4e3643 6972636c 65433145  Pc._ZN6CircleC1E
 4e2a 64646400 6d61696e 005f5a4e 344c696e  ddd.main._ZN4Lin
 4e3a 65433245 64646464 005f5a4e 35536861  eC2Edddd._ZN5Sha
 4e4a 70654332 4576005f 5a4e3950 72696e74  peC2Ev._ZN9Print
 4e5a 61626c65 43324576 005f5a4e 35536861  ableC2Ev._ZN5Sha
 4e6a 70654432 4576007e 4c696e65 005f5a4e  peD2Ev.~Line._ZN
 4e7a 344c696e 65443145 76005f5a 4e344c69  4LineD1Ev._ZN4Li
 4e8a 6e654430 45760000 5f5a5468 6e31365f  neD0Ev.._ZThn16_
 4e9a 4e344c69 6e653570 72696e74 4576005f  N4Line5printEv._
 4eaa 5a4e3553 68617065 44314576 005f5a4e  ZN5ShapeD1Ev._ZN
 4eba 35536861 70654430 4576005f 5a4e344c  5ShapeD0Ev._ZN4L
 4eca 696e6544 32457600 5f5a4e35 506f696e  ineD2Ev._ZN5Poin
 4eda 74433245 64005f5a 4e35506f 696e7444  tC2Ed._ZN5PointD
 4eea 31457600 5f5a4e35 506f696e 74443045  1Ev._ZN5PointD0E
 4efa 76005f5a 4e35506f 696e7444 32457600  v._ZN5PointD2Ev.
 4f0a 5f5a4e36 43697263 6c654332 45646464  _ZN6CircleC2Eddd
 4f1a 007e4369 72636c65 005f5a4e 36436972  .~Circle._ZN6Cir
 4f2a 636c6544 31457600 5f5a4e36 43697263  cleD1Ev._ZN6Circ
 4f3a 6c654430 4576005f 5a4e3643 6972636c  leD0Ev._ZN6Circl
 4f4a 65443245 76007472 61636500 66640074  eD2Ev.trace.fd.t
 4f5a 72616365 5f73697a 65006d65 73736167  race_size.messag
 4f6a 65730069 00700073 0066696c 65006c69  es.i.p.s.file.li
 4f7a 6e650074 696d6573 74616d70 00617267  ne.timestamp.arg
 4f8a 63006172 67760076 61720076 616c0070  c.argv.var.val.p
 4f9a 74725369 7a650070 4c696e65 00705072  trSize.pLine.pPr
 4faa 696e7465 72007468 69730078 31007931  inter.this.x1.y1
 4fba 00783200 79320070 4f626a00 70566972  .x2.y2.pObj.pVir
 4fca 46756e63 00666e50 74720050 4f494e47  Func.fnPtr.POING
 4fda 5f44554d 505f464e 5f505452 00705669  _DUMP_FN_PTR.pVi
 4fea 72546162 00610070 48657844 756d7046  rTab.a.pHexDumpF
 4ffa 6e004845 585f4455 4d505f46 4e5f5054  n.HEX_DUMP_FN_PT
 500a 52007050 6f696e74 00704369 72636c65  R.pPoint.pCircle
 501a 00704472 6177466e 004c494e 455f4452  .pDrawFn.LINE_DR
 502a 41575f46 4e5f5054 52007044 756d7046  AW_FN_PTR.pDumpF
 503a 6e004c49 4e455f44 554d505f 464e5f50  n.LINE_DUMP_FN_P
 504a 54520070 5072696e 74466e00 4c494e45  TR.pPrintFn.LINE
 505a 5f505249 4e545f46 4e5f5054 52007050  _PRINT_FN_PTR.pP
 506a 72696e74 466e3200 5052494e 545f464e  rintFn2.PRINT_FN
 507a 5f505452 00704472 6177466e 32004452  _PTR.pDrawFn2.DR
 508a 41575f46 4e5f5054 52007900 72007265  AW_FN_PTR.y.r.re
 509a 7400636f 6c6f7200                    t.color.        
Contents of section .debug_loc:
 50a2 00000000 00000000 17000000 00000000  ................
 50b2 01005517 00000000 000000b9 00000000  ..U.............
 50c2 00000001 005f0000 00000000 00000000  ....._..........
 50d2 00000000 00002500 00000000 00003b00  ......%.......;.
 50e2 00000000 00000200 11003b00 00000000  ..........;.....
 50f2 00006f00 00000000 00000300 53930400  ..o.........S...
 5102 00000000 00000000 00000000 00000048  ...............H
 5112 00000000 000000b9 00000000 00000001  ................
 5122 005d0000 00000000 00000000 00000000  .]..............
 5132 0000d000 00000000 0000e400 00000000  ................
 5142 00000100 55e40000 00000000 00f00000  ....U...........
 5152 00000000 00010053 00000000 00000000  .......S........
 5162 00000000 00000000 d0000000 00000000  ................
 5172 e1000000 00000000 03005493 04e10000  ..........T.....
 5182 00000000 00f00000 00000000 0003005f  ..............._
 5192 93040000 00000000 00000000 00000000  ................
 51a2 0000d000 00000000 0000de00 00000000  ................
 51b2 00000100 51de0000 00000000 00150100  ....Q...........
 51c2 00000000 0001005e 00000000 00000000  .......^........
 51d2 00000000 00000000 20010000 00000000  ........ .......
 51e2 33010000 00000000 01005533 01000000  3.........U3....
 51f2 00000063 01000000 00000001 005f6301  ...c........._c.
 5202 00000000 00008801 00000000 00000100  ................
 5212 52000000 00000000 00000000 00000000  R...............
 5222 00200100 00000000 00300100 00000000  . .......0......
 5232 00030054 93043001 00000000 00006001  ...T..0.......`.
 5242 00000000 00000300 5e930460 01000000  ........^..`....
 5252 00000088 01000000 00000003 00589304  .............X..
 5262 00000000 00000000 00000000 00000000  ................
 5272 20010000 00000000 2d010000 00000000   .......-.......
 5282 0100512d 01000000 0000005a 01000000  ..Q-.......Z....
 5292 00000001 00535a01 00000000 00007201  .....SZ.......r.
 52a2 00000000 00000100 55000000 00000000  ........U.......
 52b2 00000000 00000000 003d0100 00000000  .........=......
 52c2 00630100 00000000 00010052 00000000  .c.........R....
 52d2 00000000 00000000 00000000 90010000  ................
 52e2 00000000 ab010000 00000000 03005593  ..............U.
 52f2 04000000 00000000 00000000 00000000  ................
 5302 00900100 00000000 00b00100 00000000  ................
 5312 00010054 00000000 00000000 00000000  ...T............
 5322 00000000 96010000 00000000 c2010000  ................
 5332 00000000 02001101 c2010000 00000000  ................
 5342 d0010000 00000000 02007400 e5010000  ..........t.....
 5352 00000000 0c020000 00000000 03005493  ..............T.
 5362 04000000 00000000 00000000 00000000  ................
 5372 009d0100 00000000 00c60100 00000000  ................
 5382 00020011 02c60100 00000000 00000200  ................
 5392 00000000 00020071 00000000 00000000  .......q........
 53a2 00000000 00000000 001e0200 00000000  ................
 53b2 006b0200 00000000 00010053 00000000  .k.........S....
 53c2 00000000 00000000 00000000 70020000  ............p...
 53d2 00000000 7c020000 00000000 03005593  ....|.........U.
 53e2 04000000 00000000 00000000 00000000  ................
 53f2 00700200 00000000 00a40200 00000000  .p..............
 5402 00010054 00000000 00000000 00000000  ...T............
 5412 00000000 84020000 00000000 f7020000  ................
 5422 00000000 01005300 00000000 00000000  ......S.........
 5432 00000000 00000098 02000000 000000f9  ................
 5442 02000000 00000001 005e0000 00000000  .........^......
 5452 00000000 00000000 0000cd02 00000000  ................
 5462 0000fb02 00000000 00000400 10111000  ................
 5472 00000000 00000000 00000000 00000000  ................
 5482 00030000 00000000 2d030000 00000000  ........-.......
 5492 03005593 04000000 00000000 00000000  ..U.............
 54a2 00000000 00000300 00000000 002a0300  .............*..
 54b2 00000000 00010054 00000000 00000000  .......T........
 54c2 00000000 00000000 39030000 00000000  ........9.......
 54d2 56030000 00000000 01005400 00000000  V.........T.....
 54e2 00000000 00000000 0000006b 03000000  ...........k....
 54f2 00000023 05000000 00000001 005e0000  ...#.........^..
 5502 00000000 00000000 00000000 00008803  ................
 5512 00000000 00002505 00000000 00000100  ......%.........
 5522 5f000000 00000000 00000000 00000000  _...............
 5532 00b50300 00000000 001f0500 00000000  ................
 5542 00010053 00000000 00000000 00000000  ...S............
 5552 00000000 65040000 00000000 27050000  ....e.......'...
 5562 00000000 04001011 10000000 00000000  ................
 5572 00000000 00000000 00006e04 00000000  ..........n.....
 5582 00002705 00000000 00000400 10191000  ..'.............
 5592 00000000 00000000 00000000 00000000  ................
 55a2 77040000 00000000 27050000 00000000  w.......'.......
 55b2 04001021 10000000 00000000 00000000  ...!............
 55c2 00000000 0000be04 00000000 00002705  ..............'.
 55d2 00000000 00000400 10011000 00000000  ................
 55e2 00000000 00000000 00000000 be040000  ................
 55f2 00000000 27050000 00000000 04001011  ....'...........
 5602 10000000 00000000 00000000 00000000  ................
 5612 00003005 00000000 00004505 00000000  ..0.......E.....
 5622 00000300 55930400 00000000 00000000  ....U...........
 5632 00000000 00000030 05000000 00000047  .......0.......G
 5642 05000000 00000001 00540000 00000000  .........T......
 5652 00000000 00000000 0000805a 00000000  ...........Z....
 5662 0000a05a 00000000 00000100 55a05a00  ...Z........U.Z.
 5672 00000000 00f95a00 00000000 00010053  ......Z........S
 5682 00000000 00000000 00000000 00000000  ................
 5692 805a0000 00000000 9d5a0000 00000000  .Z.......Z......
 56a2 0100619d 5a000000 000000ff 5a000000  ..a.Z.......Z...
 56b2 00000002 00765800 00000000 00000000  .....vX.........
 56c2 00000000 00000080 5a000000 00000098  ........Z.......
 56d2 5a000000 00000001 0062985a 00000000  Z........b.Z....
 56e2 0000ff5a 00000000 00000200 76600000  ...Z........v`..
 56f2 00000000 00000000 00000000 0000805a  ...............Z
 5702 00000000 0000935a 00000000 00000100  .......Z........
 5712 63935a00 00000000 00ff5a00 00000000  c.Z.......Z.....
 5722 00020076 68000000 00000000 00000000  ...vh...........
 5732 00000000 00805a00 00000000 008e5a00  ......Z.......Z.
 5742 00000000 00010064 8e5a0000 00000000  .......d.Z......
 5752 ff5a0000 00000000 02007670 00000000  .Z........vp....
 5762 00000000 00000000 00000000 805b0000  .............[..
 5772 00000000 925b0000 00000000 01005500  .....[........U.
 5782 00000000 00000000 00000000 000000a0  ................
 5792 5b000000 000000bf 5b000000 00000001  [.......[.......
 57a2 00550000 00000000 00000000 00000000  .U..............
 57b2 0000d05b 00000000 0000db5b 00000000  ...[.......[....
 57c2 00000100 55000000 00000000 00000000  ....U...........
 57d2 00000000 00f05b00 00000000 00f85b00  ......[.......[.
 57e2 00000000 00010055 00000000 00000000  .......U........
 57f2 00000000 00000000 305c0000 00000000  ........0\......
 5802 3e5c0000 00000000 01005500 00000000  >\........U.....
 5812 00000000 00000000 000000b0 5c000000  ............\...
 5822 000000c0 5c000000 00000001 00550000  ....\........U..
 5832 00000000 00000000 00000000 0000005d  ...............]
 5842 00000000 00001b5d 00000000 00000100  .......]........
 5852 551b5d00 00000000 00595d00 00000000  U.]......Y].....
 5862 00010053 00000000 00000000 00000000  ...S............
 5872 00000000 005d0000 00000000 185d0000  .....].......]..
 5882 00000000 01006118 5d000000 0000005f  ......a.]......_
 5892 5d000000 00000002 00766000 00000000  ]........v`.....
 58a2 00000000 00000000 00000000 5d000000  ............]...
 58b2 00000013 5d000000 00000001 0062135d  ....]........b.]
 58c2 00000000 00005f5d 00000000 00000200  ......_]........
 58d2 76680000 00000000 00000000 00000000  vh..............
 58e2 0000005d 00000000 00000e5d 00000000  ...].......]....
 58f2 00000100 630e5d00 00000000 005f5d00  ....c.]......_].
 5902 00000000 00020076 70000000 00000000  .......vp.......
 5912 00000000 00000000 00805d00 00000000  ..........].....
 5922 00925d00 00000000 00010055 00000000  ..]........U....
 5932 00000000 00000000 00000000 a05d0000  .............]..
 5942 00000000 ba5d0000 00000000 01005500  .....]........U.
 5952 00000000 00000000 00000000 000000    ............... 
Contents of section .debug_ranges:
 5961 00000000 00000000 6d020000 00000000  ........m.......
 5971 505a0000 00000000 5a5a0000 00000000  PZ......ZZ......
 5981 70020000 00000000 fb020000 00000000  p...............
 5991 605a0000 00000000 6a5a0000 00000000  `Z......jZ......
 59a1 00030000 00000000 27050000 00000000  ........'.......
 59b1 705a0000 00000000 7a5a0000 00000000  pZ......zZ......
 59c1 30050000 00000000 67050000 00000000  0.......g.......
 59d1 805a0000 00000000 d65d0000 00000000  .Z.......]......
 59e1 00000000 00000000 00000000 00000000  ................
Contents of section .literal8:
 59f8 00000000 00003440 00000000 00003e40  ......4@......>@
 5a08 00000000 00004440 00000000 00004e40  ......D@......N@
 5a18 00000000 00003e40 00000000 00005940  ......>@......Y@
 5a28 00000000 00003440 00000000 00003e40  ......4@......>@
 5a38 00000000 00002440 00000000 00004440  ......$@......D@
 5a48 00000000 00004e40                    ......N@        
Contents of section __TEXT.__textcoal_nt:
 5a50 554889e5 5de90000 0000660f 1f440000  UH..].....f..D..
 5a60 554889e5 5de90000 0000660f 1f440000  UH..].....f..D..
 5a70 554889e5 5de90000 0000660f 1f440000  UH..].....f..D..
 5a80 554889e5 534883ec 28f20f11 5df0f20f  UH..SH..(...]...
 5a90 1155e8f2 0f114de0 f20f1145 d84889fb  .U....M....E.H..
 5aa0 e8000000 00488d7b 10e80000 0000488b  .....H.{......H.
 5ab0 05000000 00488d48 1048890b 4883c048  .....H.H.H..H..H
 5ac0 48894310 f20f1045 d8f20f11 4318f20f  H.C....E....C...
 5ad0 1045e0f2 0f114320 f20f1045 e8f20f11  .E....C ...E....
 5ae0 4328f20f 1045f0f2 0f114330 be020000  C(...E....C0....
 5af0 004889df 4883c428 5b5de900 00000090  .H..H..([]......
 5b00 554889e5 488b0500 00000048 83c01048  UH..H......H...H
 5b10 8907c747 08000000 005dc30f 1f440000  ...G.....]...D..
 5b20 554889e5 488b0500 00000048 83c01048  UH..H......H...H
 5b30 89075dc3 6666662e 0f1f8400 00000000  ..].fff.........
 5b40 554889e5 8977085d c30f1f80 00000000  UH...w.]........
 5b50 554889e5 5dc3662e 0f1f8400 00000000  UH..].f.........
 5b60 554889e5 5dc3662e 0f1f8400 00000000  UH..].f.........
 5b70 554889e5 5de90000 0000660f 1f440000  UH..].....f..D..
 5b80 554889e5 e8000000 0089c148 8d3dec04  UH.........H.=..
 5b90 000031c0 89cee800 00000031 c05dc390  ..1........1.]..
 5ba0 554889e5 f20f1047 18f20f10 4f20f20f  UH.....G....O ..
 5bb0 105728f2 0f105f30 488d3ddb 040000b0  .W(..._0H.=.....
 5bc0 045de900 00000066 0f1f8400 00000000  .].....f........
 5bd0 554889e5 488d3d5a 050000e8 00000000  UH..H.=Z........
 5be0 31c05dc3 6666662e 0f1f8400 00000000  1.].fff.........
 5bf0 554889e5 4883c7f0 e8000000 0031c05d  UH..H........1.]
 5c00 c3666666 6666662e 0f1f8400 00000000  .ffffff.........
 5c10 554889e5 5dc3662e 0f1f8400 00000000  UH..].f.........
 5c20 554889e5 5de90000 0000660f 1f440000  UH..].....f..D..
 5c30 554889e5 8b770848 8d3d2a04 000031c0  UH...w.H.=*...1.
 5c40 5de90000 0000662e 0f1f8400 00000000  ].....f.........
 5c50 554889e5 5dc3662e 0f1f8400 00000000  UH..].f.........
 5c60 554889e5 8b47085d c30f1f80 00000000  UH...G.]........
 5c70 554889e5 488b0500 00000048 83c01048  UH..H......H...H
 5c80 8907f20f 1147085d c30f1f80 00000000  .....G.]........
 5c90 554889e5 5dc3662e 0f1f8400 00000000  UH..].f.........
 5ca0 554889e5 5de90000 0000660f 1f440000  UH..].....f..D..
 5cb0 554889e5 f20f1047 08488d3d 0f040000  UH.....G.H.=....
 5cc0 b0015de9 00000000 0f1f8400 00000000  ..].............
 5cd0 554889e5 488d3d75 0400005d e9000000  UH..H.=u...]....
 5ce0 00666666 6666662e 0f1f8400 00000000  .ffffff.........
 5cf0 554889e5 5dc3662e 0f1f8400 00000000  UH..].f.........
 5d00 554889e5 534883ec 18f20f11 55f0f20f  UH..SH......U...
 5d10 114de8f2 0f1145e0 4889fbe8 00000000  .M....E.H.......
 5d20 488b0500 00000048 83c01048 8903f20f  H......H...H....
 5d30 1045e0f2 0f114310 f20f1045 e8f20f11  .E....C....E....
 5d40 4318f20f 1045f0f2 0f114320 be010000  C....E....C ....
 5d50 004889df 4883c418 5b5de900 00000090  .H..H...[]......
 5d60 554889e5 5dc3662e 0f1f8400 00000000  UH..].f.........
 5d70 554889e5 5de90000 0000660f 1f440000  UH..].....f..D..
 5d80 554889e5 e8000000 0089c148 8d3d6203  UH.........H.=b.
 5d90 000031c0 89cee800 00000031 c05dc390  ..1........1.]..
 5da0 554889e5 f20f1047 10f20f10 4f18f20f  UH.....G....O...
 5db0 10572048 8d3d5b03 0000b003 5de90000  .W H.=[.....]...
 5dc0 00006666 6666662e 0f1f8400 00000000  ..fffff.........
 5dd0 554889e5 5dc3                        UH..].          
Contents of section .cstring:
 5de0 2d2d2d20 73746163 6b206261 636b7472  --- stack backtr
 5df0 61636520 62656769 6e202d2d 2d0a0025  ace begin ---..%
 5e00 730a002d 2d2d2073 7461636b 20626163  s..--- stack bac
 5e10 6b747261 63652065 6e64202d 2d2d0a00  ktrace end ---..
 5e20 25303278 20000a00 5b737461 74697374  %02x ...[statist
 5e30 69635d20 256c642e 2025733a 25642063  ic] %ld. %s:%d c
 5e40 616c6c65 6420256c 640a0070 6f696e74  alled %ld..point
 5e50 65722073 697a653d 25640a00 706f696e  er size=%d..poin
 5e60 74657220 61646472 2d2d7661 723a2570  ter addr--var:%p
 5e70 2c207661 6c3a2025 700a0031 2e207661  , val: %p..1. va
 5e80 723d256c 640a0032 2e207661 723d256c  r=%ld..2. var=%l
 5e90 640a0074 6573742f 66756e63 74696f6e  d..test/function
 5ea0 5f707472 5f746573 742e6370 7000704c  _ptr_test.cpp.pL
 5eb0 696e653a 25702c20 70507269 6e746572  ine:%p, pPrinter
 5ec0 3a202570 0a00506f 696e7420 73697a65  : %p..Point size
 5ed0 3d25640a 00704f62 6a287670 7472293d  =%d..pObj(vptr)=
 5ee0 25700a00 704f626a 20767074 72206675  %p..pObj vptr fu
 5ef0 6e63313d 25700a00 666e5074 723d2570  nc1=%p..fnPtr=%p
 5f00 0a007048 65784475 6d70466e 3d25700a  ..pHexDumpFn=%p.
 5f10 00706f69 6e746572 2073697a 653d2564  .pointer size=%d
 5f20 2c20696e 74207479 70653d25 642c2064  , int type=%d, d
 5f30 6f75626c 65207479 70652073 697a653d  ouble type size=
 5f40 256c750a 00736861 70652073 697a653d  %lu..shape size=
 5f50 256c752c 20706f69 6e746572 20697320  %lu, pointer is 
 5f60 25700a00 63697263 6c652073 697a653d  %p..circle size=
 5f70 256c752c 20706f69 6e746572 20697320  %lu, pointer is 
 5f80 25700a00 6c696e65 2073697a 653d256c  %p..line size=%l
 5f90 752c2070 6f696e74 65722069 73202570  u, pointer is %p
 5fa0 0a005072 696e7461 626c6520 73697a65  ..Printable size
 5fb0 3d256c75 2c20706f 696e7465 72206973  =%lu, pointer is
 5fc0 2025700a 004c696e 653a3a64 72617720   %p..Line::draw 
 5fd0 61646472 6573733d 25702c20 4c696e65  address=%p, Line
 5fe0 3a3a6475 6d702061 64647265 73733d25  ::dump address=%
 5ff0 702c204c 696e653a 3a707269 6e742061  p, Line::print a
 6000 64647265 73733d25 700a0053 68617065  ddress=%p..Shape
 6010 3a3a6472 61772061 64647265 73733d25  ::draw address=%
 6020 700a0050 72696e74 61626c65 3a3a7072  p..Printable::pr
 6030 696e7420 61646472 6573733d 25700a00  int address=%p..
 6040 74657374 5f706f69 6e742c20 7265743d  test_point, ret=
 6050 25640a00 74657374 5f736861 70652c20  %d..test_shape, 
 6060 7265743d 25640a00 53686170 653a3a64  ret=%d..Shape::d
 6070 756d703a 20636f6c 6f723d25 64004c69  ump: color=%d.Li
 6080 6e653a3a 64726177 3a206c69 6e652c20  ne::draw: line, 
 6090 636f6c6f 723d2564 0a004c69 6e653a3a  color=%d..Line::
 60a0 64756d70 3a207831 3d25662c 2079313d  dump: x1=%f, y1=
 60b0 25662c20 78323d25 662c2079 323d2566  %f, x2=%f, y2=%f
 60c0 0a004c69 6e653a3a 7072696e 740a0050  ..Line::print..P
 60d0 6f696e74 3a3a6475 6d702078 3d25660a  oint::dump x=%f.
 60e0 00506f69 6e743a3a 6d6f7665 20706f69  .Point::move poi
 60f0 6e740a00 43697263 6c653a3a 64726177  nt..Circle::draw
 6100 3a206369 72636c65 202c2063 6f6c6f72  : circle , color
 6110 3d25640a 00436972 636c653a 3a64756d  =%d..Circle::dum
 6120 703a2078 3d25662c 20793d25 662c2072  p: x=%f, y=%f, r
 6130 3d25660a 004c696e 653a3a70 72696e74  =%f..Line::print
 6140 00000000 00000000 00000000 00000000  ................
 6150 506f696e 743a3a6d 6f766520 706f696e  Point::move poin
 6160 7400                                 t.              
Contents of section __DATA.__datacoal_nt:
 6170 00000000 00000000 00000000 00000000  ................
 6180 00000000 00000000 00000000 00000000  ................
 6190 00000000 00000000 00000000 00000000  ................
 61a0 00000000 00000000 f0ffffff ffffffff  ................
 61b0 00000000 00000000 00000000 00000000  ................
 61c0 10000000 00000000 00000000 00000000  ................
 61d0 10000000 00000000 00000000 00000000  ................
 61e0 10000000 00000000 00000000 00000000  ................
 61f0 00000000 02000000 00000000 00000000  ................
 6200 02000000 00000000 00000000 00000000  ................
 6210 02100000 00000000 00000000 00000000  ................
 6220 00000000 00000000 00000000 00000000  ................
 6230 00000000 00000000 00000000 00000000  ................
 6240 00000000 00000000 00000000 00000000  ................
 6250 00000000 00000000 00000000 00000000  ................
 6260 00000000 00000000 00000000 00000000  ................
 6270 00000000 00000000 00000000 00000000  ................
 6280 00000000 00000000 00000000 00000000  ................
 6290 10000000 00000000 00000000 00000000  ................
 62a0 00000000 00000000 00000000 00000000  ................
 62b0 00000000 00000000 00000000 00000000  ................
 62c0 00000000 00000000 00000000 00000000  ................
 62d0 10000000 00000000 00000000 00000000  ................
 62e0 00000000 00000000                    ........        
Contents of section __TEXT.__const_coal:
 62e8 344c696e 65003553 68617065 00395072  4Line.5Shape.9Pr
 62f8 696e7461 626c6500 35506f69 6e740036  intable.5Point.6
 6308 43697263 6c6500                      Circle.         
Contents of section __DWARF.__apple_names:
 630f 48534148 01000000 1e000000 3d000000  HSAH........=...
 631f 0c000000 00000000 01000000 01000600  ................
 632f 00000000 02000000 06000000 07000000  ................
 633f 09000000 0a000000 0d000000 0e000000  ................
 634f 12000000 ffffffff 15000000 18000000  ................
 635f 1a000000 1c000000 1e000000 21000000  ............!...
 636f 23000000 26000000 ffffffff 28000000  #...&.......(...
 637f ffffffff 29000000 2b000000 2f000000  ....)...+.../...
 638f 32000000 33000000 36000000 39000000  2...3...6...9...
 639f ffffffff 3c000000 3c364002 f69fcf03  ....<...<6@.....
 63af fbb1342e 31c5fb3b 53d7957c 77ead4ab  ..4.1..;S..|w...
 63bf 84d74074 85414a3d 03ed14fd aed749e8  ..@t.AJ=......I.
 63cf 79b61808 41aab185 fd49ec94 88a53f02  y...A....I....?.
 63df cf53e50d c5b61b6f 5bbbf8e7 b5287ce8  .S.....o[....(|.
 63ef 6ab37385 b00e5da0 64f574cf d6a4170e  j.s...].d.t.....
 63ff 12092a10 ee57a2b7 05150000 51c2cf45  ..*..W......Q..E
 640f ba2d4002 10d25687 ab891211 8d89887c  .-@...V........|
 641f f2ea2448 d43e8764 82aeb185 c9a93f02  ..$H.>.d......?.
 642f 7193606d e0a5b53d 6a7f9a7c fa8e447e  q.`m...=j..|..D~
 643f f7ad1808 a5f974cf f5ab8f87 fb314002  ......t......1@.
 644f ad57af33 e601f529 9cbc9a7c 841f96cc  .W.3...)...|....
 645f 121bedcd c3b2b185 156adf8a f1a9f3b4  .........j......
 646f b4a8e133 7985383c 7976327e d1c1bfc5  ...3y.8<yv2~....
 647f 38b21808 c45fec54 6226b185 cd01873d  8...._.Tb&.....=
 648f 9be5957c d711777e 23f174cf 80020000  ...|..w~#.t.....
 649f 90020000 a0020000 b0020000 c0020000  ................
 64af d4020000 e8020000 f8020000 08030000  ................
 64bf 18030000 28030000 38030000 48030000  ....(...8...H...
 64cf 58030000 68030000 7c030000 8c030000  X...h...|.......
 64df 9c030000 ac030000 bc030000 cc030000  ................
 64ef dc030000 ec030000 fc030000 0c040000  ................
 64ff 1c040000 2c040000 3c040000 4c040000  ....,...<...L...
 650f 64040000 78040000 88040000 98040000  d...x...........
 651f a8040000 b8040000 c8040000 d8040000  ................
 652f e8040000 f8040000 08050000 18050000  ................
 653f 28050000 38050000 50050000 60050000  (...8...P...`...
 654f 70050000 80050000 90050000 a0050000  p...............
 655f b8050000 c8050000 e0050000 f0050000  ................
 656f 00060000 10060000 20060000 30060000  ........ ...0...
 657f 40060000 50060000 6c060000 7c060000  @...P...l...|...
 658f 22100000 01000000 552d0000 00000000  ".......U-......
 659f 770f0000 01000000 082a0000 00000000  w........*......
 65af 6e0e0000 01000000 7e250000 00000000  n.......~%......
 65bf 12040000 01000000 342e0000 00000000  ........4.......
 65cf e5020000 02000000 ef2a0000 342e0000  .........*..4...
 65df 00000000 ec030000 02000000 d5280000  .............(..
 65ef 812d0000 00000000 ad020000 01000000  .-..............
 65ff 4a2c0000 00000000 61030000 01000000  J,......a.......
 660f ef2a0000 00000000 b6020000 01000000  .*..............
 661f 342a0000 00000000 f90e0000 01000000  4*..............
 662f 49270000 00000000 eb0f0000 01000000  I'..............
 663f 1e2c0000 00000000 dd0f0000 01000000  .,..............
 664f c82b0000 00000000 a30e0000 01000000  .+..............
 665f 2b000000 00000000 170f0000 01000000  +...............
 666f c3270000 00000000 92030000 02000000  .'..............
 667f c3270000 722c0000 00000000 81030000  .'..r,..........
 668f 01000000 432b0000 00000000 300f0000  ....C+......0...
 669f 01000000 fc270000 00000000 250f0000  .....'......%...
 66af 01000000 fc270000 00000000 c70e0000  .....'..........
 66bf 01000000 63260000 00000000 c0030000  ....c&..........
 66cf 01000000 032d0000 00000000 49100000  .....-......I...
 66df 01000000 dc2d0000 00000000 67020000  .....-......g...
 66ef 01000000 dc290000 00000000 30030000  .....)......0...
 66ff 01000000 432b0000 00000000 ad0e0000  ....C+..........
 670f 01000000 2b000000 00000000 b70f0000  ....+...........
 671f 01000000 6d2b0000 00000000 e90e0000  ....m+..........
 672f 01000000 e9260000 00000000 14100000  .....&..........
 673f 01000000 d72c0000 00000000 cb020000  .....,..........
 674f 01000000 342a0000 00000000 970f0000  ....4*..........
 675f 03000000 972a0000 c32a0000 1e2c0000  .....*...*...,..
 676f 00000000 62020000 02000000 e9260000  ....b........&..
 677f 72290000 00000000 590f0000 01000000  r)......Y.......
 678f 72290000 00000000 040f0000 01000000  r)..............
 679f 49270000 00000000 cf0f0000 01000000  I'..............
 67af 9c2b0000 00000000 f80f0000 01000000  .+..............
 67bf 722c0000 00000000 640e0000 01000000  r,......d.......
 67cf 7e250000 00000000 840e0000 01000000  ~%..............
 67df f8250000 00000000 540f0000 01000000  .%......T.......
 67ef 28290000 00000000 30100000 01000000  ()......0.......
 67ff 812d0000 00000000 aa0f0000 01000000  .-..............
 680f c32a0000 00000000 67100000 01000000  .*......g.......
 681f 882e0000 00000000 b80f0000 01000000  ................
 682f 6d2b0000 00000000 06100000 01000000  m+..............
 683f ab2c0000 00000000 a8030000 03000000  .,..............
 684f ab2c0000 d72c0000 552d0000 00000000  .,...,..U-......
 685f 00030000 01000000 082a0000 00000000  .........*......
 686f e2030000 01000000 2d2d0000 00000000  ........--......
 687f 98020000 01000000 4a2c0000 00000000  ........J,......
 688f d40e0000 01000000 63260000 00000000  ........c&......
 689f 890f0000 01000000 6b2a0000 00000000  ........k*......
 68af 41100000 03000000 dc2d0000 082e0000  A........-......
 68bf 882e0000 00000000 d1030000 01000000  ................
 68cf 2d2d0000 00000000 91020000 03000000  --..............
 68df 6b2a0000 9c2b0000 c82b0000 00000000  k*...+...+......
 68ef 24040000 01000000 5e2e0000 00000000  $.......^.......
 68ff 430f0000 01000000 d5280000 00000000  C........(......
 690f 78000000 01000000 4e000000 00000000  x.......N.......
 691f 9d0f0000 01000000 972a0000 00000000  .........*......
 692f 8c0e0000 01000000 f8250000 00000000  .........%......
 693f 690f0000 01000000 dc290000 00000000  i........)......
 694f 71030000 01000000 192b0000 00000000  q........+......
 695f fb020000 04000000 192b0000 f42b0000  .........+...+..
 696f 032d0000 5e2e0000 00000000 ea020000  .-..^...........
 697f 01000000 f42b0000 00000000 58100000  .....+......X...
 698f 01000000 082e0000 00000000           ............    
Contents of section __DWARF.__apple_objc:
 699b 48534148 01000000 01000000 00000000  HSAH............
 69ab 0c000000 00000000 01000000 01000600  ................
 69bb ffffffff                             ....            
Contents of section __DWARF.__apple_namespac:
 69bf 48534148 01000000 02000000 02000000  HSAH............
 69cf 0c000000 00000000 01000000 01000600  ................
 69df 00000000 ffffffff 7453880b 70ab880b  ........tS..p...
 69ef 38000000 48000000 3a040000 01000000  8...H...:.......
 69ff 29080000 00000000 36040000 01000000  ).......6.......
 6a0f 21080000 00000000                    !.......        
Contents of section __DWARF.__apple_types:
 6a17 48534148 01000000 2b000000 56000000  HSAH....+...V...
 6a27 14000000 00000000 03000000 01000600  ................
 6a37 03000500 04000b00 ffffffff 00000000  ................
 6a47 01000000 03000000 06000000 07000000  ................
 6a57 ffffffff 0a000000 0b000000 0d000000  ................
 6a67 0f000000 10000000 12000000 14000000  ................
 6a77 16000000 18000000 19000000 1c000000  ................
 6a87 21000000 22000000 25000000 27000000  !..."...%...'...
 6a97 2b000000 2f000000 ffffffff ffffffff  +.../...........
 6aa7 32000000 35000000 36000000 ffffffff  2...5...6.......
 6ab7 38000000 ffffffff 39000000 3b000000  8.......9...;...
 6ac7 3e000000 3f000000 41000000 44000000  >...?...A...D...
 6ad7 49000000 4c000000 4e000000 51000000  I...L...N...Q...
 6ae7 53000000 1eaf0440 08532f19 ab7a4474  S......@.S/..zDt
 6af7 96deff2a 938b8b80 3964fc8c 6a98a685  ...*....9d..j...
 6b07 5a401f25 2da891ba db0943bb b25f6234  Z@.%-.....C.._b4
 6b17 d5f05a10 a7f387cc a2114959 09c9bb8c  ..Z.......IY....
 6b27 47fa1e1e fb284c0f 2ae9489f ea3e7165  G....(L.*.H..>qe
 6b37 53f070ec 5114c73c 100c76b4 8231508b  S.p.Q..<..v..1P.
 6b47 8d9e4b9f 087968a6 f4df752a 68e22566  ..K..yh...u*h.%f
 6b57 ea4b32b8 91978d7c e5e6528b 10238d99  .K2....|..R..#..
 6b67 cd933cb2 9a42c8c0 ad7bd5fb bda23829  ..<..B...{....8)
 6b77 b72c153f e8f0499f e601f529 17a8dd2a  .,.?..I....)...*
 6b87 93f2d01b 5d8c9832 8d89887c 7c2e75f8  ....]..2...||.u.
 6b97 a6795900 1ae2173f 4039518b a0a7cbf9  .yY....?@9Q.....
 6ba7 7a5de02a d6e17e7a a6d4089d f029122f  z].*..~z.....)./
 6bb7 6320957c 69e874f1 7534163f 8751190b  c .|i.t.u4.?.Q..
 6bc7 d5afde2a 50c1f6fd 9fe05211 1050b69b  ...*P.....R..P..
 6bd7 3080880b a5b2847c db62868d 77ead4ab  0......|.b..w...
 6be7 a6af960a 02965511 cf53e50d 201bec8f  ......U..S.. ...
 6bf7 35ff70f7 9be1710f 7f4455c6 b5e026ef  5.p...q..DU...&.
 6c07 205b3df9 bd7c35fb d6a4170e 0718bb2e   [=..|5.........
 6c17 4e4a4540 ba94d367 ac90a585 5de85311  NJE@...g....].S.
 6c27 41438f1f 9c679d79 3b486885 44fd82cc  AC...g.y;Hh.D...
 6c37 1bcdd304 0f46a885 736a67be 84030000  .....F..sjg.....
 6c47 97030000 aa030000 bd030000 d0030000  ................
 6c57 e3030000 f6030000 09040000 1c040000  ................
 6c67 2f040000 42040000 55040000 68040000  /...B...U...h...
 6c77 7b040000 8e040000 a1040000 b4040000  {...............
 6c87 c7040000 da040000 ed040000 00050000  ................
 6c97 13050000 26050000 39050000 4c050000  ....&...9...L...
 6ca7 5f050000 72050000 85050000 98050000  _...r...........
 6cb7 ab050000 be050000 d8050000 eb050000  ................
 6cc7 fe050000 11060000 24060000 37060000  ........$...7...
 6cd7 4a060000 5d060000 70060000 83060000  J...]...p.......
 6ce7 96060000 a9060000 bc060000 cf060000  ................
 6cf7 e2060000 f5060000 08070000 1b070000  ................
 6d07 2e070000 41070000 54070000 67070000  ....A...T...g...
 6d17 7a070000 8d070000 a0070000 b3070000  z...............
 6d27 c6070000 d9070000 ec070000 ff070000  ................
 6d37 12080000 25080000 38080000 4b080000  ....%...8...K...
 6d47 5e080000 71080000 84080000 97080000  ^...q...........
 6d57 aa080000 bd080000 d0080000 e3080000  ................
 6d67 f6080000 09090000 1c090000 2f090000  ............/...
 6d77 42090000 55090000 68090000 7b090000  B...U...h...{...
 6d87 8e090000 a1090000 b4090000 c7090000  ................
 6d97 da090000 ce0d0000 01000000 65240000  ............e$..
 6da7 16000000 000000fb 0c000001 000000b5  ................
 6db7 23000016 00000000 00003001 00000100  #.........0.....
 6dc7 00007b02 00001600 00000000 00070900  ..{.............
 6dd7 00010000 00681b00 00160000 00000000  .....h..........
 6de7 de050000 01000000 ec130000 16000000  ................
 6df7 000000a0 0d000001 00000039 24000016  ...........9$...
 6e07 00000000 0000840d 00000100 00002324  ..............#$
 6e17 00001600 00000000 00ca0800 00010000  ................
 6e27 00311b00 00160000 00000000 e0060000  .1..............
 6e37 01000000 28170000 24000000 000000ae  ....(...$.......
 6e47 11000001 00000073 2f000016 00000000  .......s/.......
 6e57 0000ac0c 00000100 00007723 00002400  ..........w#..$.
 6e67 00000000 00ce0000 00010000 00e80100  ................
 6e77 00240000 00000000 22110000 01000000  .$......".......
 6e87 e62e0000 16000000 00000049 11000001  ...........I....
 6e97 0000000c 2f000016 00000000 0000c50d  ..../...........
 6ea7 00000100 00005a24 00001600 00000000  ......Z$........
 6eb7 00f10d00 00010000 00862400 00160000  ..........$.....
 6ec7 00000000 d1050000 01000000 d6130000  ................
 6ed7 16000000 00000083 0c000001 00000040  ...............@
 6ee7 23000016 00000000 00006211 00000100  #.........b.....
 6ef7 00002c2f 00001600 00000000 00de0000  ..,/............
 6f07 00010000 00ef0100 00130000 00000000  ................
 6f17 79020000 01000000 19060000 0f000000  y...............
 6f27 0000003a 01000001 00000086 02000024  ...:...........$
 6f37 00000000 0000d10c 00000100 00009423  ...............#
 6f47 00001600 00000000 00930c00 00010000  ................
 6f57 00562300 00160000 00000000 8a0a0000  .V#.............
 6f67 01000000 2c1d0000 16000000 000000fe  ....,...........
 6f77 08000001 0000005d 1b000016 00000000  .......]........
 6f87 0000360d 00000100 0000e123 00001600  ..6........#....
 6f97 00000000 00940a00 00010000 00371d00  .............7..
 6fa7 00160000 00000000 e7030000 01000000  ................
 6fb7 4d070000 16000000 000000ed 0c000001  M...............
 6fc7 000000aa 23000016 00000000 00009101  ....#...........
 6fd7 00000200 0000db02 00001300 00fd1000  ................
 6fe7 00160000 00000000 a9010000 01000000  ................
 6ff7 12030000 24000000 00000098 11000001  ....$...........
 7007 00000053 2f000016 00000000 00008d00  ...S/...........
 7017 00000100 0000ab00 00002400 00000000  ..........$.....
 7027 00770c00 00010000 00392300 00240000  .w.......9#..$..
 7037 00000000 090d0000 01000000 c0230000  .............#..
 7047 16000000 0000008b 0c000001 0000004b  ...............K
 7057 23000016 00000000 00000003 00000100  #...............
 7067 00002c06 00000200 00000000 00420d00  ..,..........B..
 7077 00010000 00ec2300 00160000 00000000  ......#.........
 7087 43040000 01000000 0d0f0000 16000000  C...............
 7097 00000069 0d000001 0000000d 24000016  ...i........$...
 70a7 00000000 00006202 00000100 00005304  ......b.......S.
 70b7 00000200 00000000 00d10800 00010000  ................
 70c7 003c1b00 00160000 00000000 07020000  .<..............
 70d7 01000000 b0030000 13000000 00000027  ...............'
 70e7 0d000001 000000d6 23000016 00000000  ........#.......
 70f7 0000df0c 00000100 00009f23 00001600  ...........#....
 7107 00000000 00af0000 00010000 00da0100  ................
 7117 00240000 00000000 5c0d0000 01000000  .$......\.......
 7127 02240000 16000000 000000a4 00000001  .$..............
 7137 000000b2 00000013 00000000 0000a70a  ................
 7147 00000100 0000421d 00001600 00000000  ......B.........
 7157 009b0c00 00010000 00612300 00160000  .........a#.....
 7167 00000000 0f010000 01000000 44020000  ............D...
 7177 24000000 000000f8 0d000001 00000091  $...............
 7187 24000016 00000000 0000180d 00000100  $...............
 7197 0000cb23 00001600 00000000 00d70500  ...#............
 71a7 00010000 00e11300 00160000 00000000  ................
 71b7 4f0d0000 01000000 f7230000 16000000  O........#......
 71c7 0000001a 01000001 00000065 02000016  ...........e....
 71d7 00000000 0000a30c 00000100 00006c23  ..............l#
 71e7 00001600 00000000 00270600 00010000  .........'......
 71f7 00a61400 00240000 00000000 c0000000  .....$..........
 7207 01000000 e1010000 24000000 0000003e  ........$......>
 7217 04000001 00000002 0f000016 00000000  ................
 7227 0000a90d 00000100 00004424 00001600  ..........D$....
 7237 00000000 00ec0300 00010000 005d0700  .............]..
 7247 00020000 00000000 e00d0000 01000000  ................
 7257 7b240000 16000000 00000084 00000001  {$..............
 7267 000000a0 00000016 00000000 00009203  ................
 7277 00000100 00008f06 00000200 00000000  ................
 7287 00e90100 00010000 005b0300 00240000  .........[...$..
 7297 00000000 21010000 01000000 70020000  ....!.......p...
 72a7 16000000 00000019 06000001 00000086  ................
 72b7 14000024 00000000 0000fb10 00000100  ...$............
 72c7 0000ca2e 00001600 00000000 004a0400  .............J..
 72d7 00010000 00180f00 00160000 00000000  ................
 72e7 40030000 01000000 7e060000 24000000  @.......~...$...
 72f7 0000005a 04000001 00000023 0f000024  ...Z.......#...$
 7307 00000000 00006702 00000100 00004b05  ......g.......K.
 7317 00000200 00000000 00660c00 00010000  .........f......
 7327 00232300 00160000 00000000 bb0d0000  .##.............
 7337 01000000 4f240000 16000000 000000e1  ....O$..........
 7347 08000001 00000047 1b000016 00000000  .......G........
 7357 0000760d 00000100 00001824 00001600  ..v........$....
 7367 00000000 00bb0c00 00010000 007e2300  .............~#.
 7377 00160000 00000000 7c110000 01000000  ........|.......
 7387 482f0000 16000000 000000eb 08000001  H/..............
 7397 00000052 1b000016 00000000 00001909  ...R............
 73a7 00000100 0000731b 00001600 00000000  ......s.........
 73b7 00d80d00 00010000 00702400 00160000  .........p$.....
 73c7 00000000 700c0000 01000000 2e230000  ....p........#..
 73d7 16000000 00000092 0d000001 0000002e  ................
 73e7 24000016 00000000 0000c40c 00000100  $...............
 73f7 00008923 00001600 00000000 00        ...#.........   
Contents of section __DWARF.__apple_exttypes:
 7404 48534148 01000000 01000000 00000000  HSAH............
 7414 0c000000 00000000 01000000 07000600  ................
 7424 ffffffff                             ....            
Contents of section __LD.__compact_unwind:
 7428 00000000 00000000 d0000000 d1580501  .............X..
 7438 00000000 00000000 00000000 00000000  ................
 7448 d0000000 00000000 4d000000 110b0401  ........M.......
 7458 00000000 00000000 00000000 00000000  ................
 7468 20010000 00000000 68000000 61010301   .......h...a...
 7478 00000000 00000000 00000000 00000000  ................
 7488 90010000 00000000 dd000000 01000101  ................
 7498 00000000 00000000 00000000 00000000  ................
 74a8 505a0000 00000000 0a000000 00000001  PZ..............
 74b8 00000000 00000000 00000000 00000000  ................
 74c8 70020000 00000000 8b000000 21000201  p...........!...
 74d8 00000000 00000000 00000000 00000000  ................
 74e8 605a0000 00000000 0a000000 00000001  `Z..............
 74f8 00000000 00000000 00000000 00000000  ................
 7508 00030000 00000000 27020000 110b0401  ........'.......
 7518 00000000 00000000 00000000 00000000  ................
 7528 705a0000 00000000 0a000000 00000001  pZ..............
 7538 00000000 00000000 00000000 00000000  ................
 7548 30050000 00000000 37000000 00000001  0.......7.......
 7558 00000000 00000000 00000000 00000000  ................
 7568 805a0000 00000000 7f000000 01000101  .Z..............
 7578 00000000 00000000 00000000 00000000  ................
 7588 005b0000 00000000 1b000000 00000001  .[..............
 7598 00000000 00000000 00000000 00000000  ................
 75a8 205b0000 00000000 14000000 00000001   [..............
 75b8 00000000 00000000 00000000 00000000  ................
 75c8 405b0000 00000000 09000000 00000001  @[..............
 75d8 00000000 00000000 00000000 00000000  ................
 75e8 505b0000 00000000 06000000 00000001  P[..............
 75f8 00000000 00000000 00000000 00000000  ................
 7608 605b0000 00000000 06000000 00000001  `[..............
 7618 00000000 00000000 00000000 00000000  ................
 7628 705b0000 00000000 0a000000 00000001  p[..............
 7638 00000000 00000000 00000000 00000000  ................
 7648 805b0000 00000000 1f000000 00000001  .[..............
 7658 00000000 00000000 00000000 00000000  ................
 7668 a05b0000 00000000 27000000 00000001  .[......'.......
 7678 00000000 00000000 00000000 00000000  ................
 7688 d05b0000 00000000 14000000 00000001  .[..............
 7698 00000000 00000000 00000000 00000000  ................
 76a8 f05b0000 00000000 11000000 00000001  .[..............
 76b8 00000000 00000000 00000000 00000000  ................
 76c8 105c0000 00000000 06000000 00000001  .\..............
 76d8 00000000 00000000 00000000 00000000  ................
 76e8 205c0000 00000000 0a000000 00000001   \..............
 76f8 00000000 00000000 00000000 00000000  ................
 7708 305c0000 00000000 16000000 00000001  0\..............
 7718 00000000 00000000 00000000 00000000  ................
 7728 505c0000 00000000 06000000 00000001  P\..............
 7738 00000000 00000000 00000000 00000000  ................
 7748 605c0000 00000000 09000000 00000001  `\..............
 7758 00000000 00000000 00000000 00000000  ................
 7768 705c0000 00000000 19000000 00000001  p\..............
 7778 00000000 00000000 00000000 00000000  ................
 7788 905c0000 00000000 06000000 00000001  .\..............
 7798 00000000 00000000 00000000 00000000  ................
 77a8 a05c0000 00000000 0a000000 00000001  .\..............
 77b8 00000000 00000000 00000000 00000000  ................
 77c8 b05c0000 00000000 18000000 00000001  .\..............
 77d8 00000000 00000000 00000000 00000000  ................
 77e8 d05c0000 00000000 11000000 00000001  .\..............
 77f8 00000000 00000000 00000000 00000000  ................
 7808 f05c0000 00000000 06000000 00000001  .\..............
 7818 00000000 00000000 00000000 00000000  ................
 7828 005d0000 00000000 5f000000 01000101  .]......_.......
 7838 00000000 00000000 00000000 00000000  ................
 7848 605d0000 00000000 06000000 00000001  `]..............
 7858 00000000 00000000 00000000 00000000  ................
 7868 705d0000 00000000 0a000000 00000001  p]..............
 7878 00000000 00000000 00000000 00000000  ................
 7888 805d0000 00000000 1f000000 00000001  .]..............
 7898 00000000 00000000 00000000 00000000  ................
 78a8 a05d0000 00000000 22000000 00000001  .]......".......
 78b8 00000000 00000000 00000000 00000000  ................
 78c8 d05d0000 00000000 06000000 00000001  .]..............
 78d8 00000000 00000000 00000000 00000000  ................
Contents of section .eh_frame:
 78e8 14000000 00000000 017a5200 01781001  .........zR..x..
 78f8 100c0708 90010000 2c000000 1c000000  ........,.......
 7908 f886ffff ffffffff d0000000 00000000  ................
 7918 00410e10 8602430d 06508307 8c068d05  .A....C..P......
 7928 8e048f03 00000000 2c000000 4c000000  ........,...L...
 7938 9887ffff ffffffff 4d000000 00000000  ........M.......
 7948 00410e10 8602430d 06478306 8c058e04  .A....C..G......
 7958 8f030000 00000000 24000000 7c000000  ........$...|...
 7968 b887ffff ffffffff 68000000 00000000  ........h.......
 7978 00410e10 8602430d 06468305 8e048f03  .A....C..F......
 7988 24000000 a4000000 0088ffff ffffffff  $...............
 7998 dd000000 00000000 00410e10 8602430d  .........A....C.
 79a8 06428303 00000000 24000000 cc000000  .B......$.......
 79b8 98e0ffff ffffffff 0a000000 00000000  ................
 79c8 00410e10 8602430d 06000000 00000000  .A....C.........
 79d8 24000000 f4000000 9088ffff ffffffff  $...............
 79e8 8b000000 00000000 00410e10 8602430d  .........A....C.
 79f8 06438304 8e030000 24000000 1c010000  .C......$.......
 7a08 58e0ffff ffffffff 0a000000 00000000  X...............
 7a18 00410e10 8602430d 06000000 00000000  .A....C.........
 7a28 2c000000 44010000 d088ffff ffffffff  ,...D...........
 7a38 27020000 00000000 00410e10 8602430d  '........A....C.
 7a48 064b8306 8c058e04 8f030000 00000000  .K..............
 7a58 24000000 74010000 10e0ffff ffffffff  $...t...........
 7a68 0a000000 00000000 00410e10 8602430d  .........A....C.
 7a78 06000000 00000000 24000000 9c010000  ........$.......
 7a88 a88affff ffffffff 37000000 00000000  ........7.......
 7a98 00410e10 8602430d 06000000 00000000  .A....C.........
 7aa8 24000000 c4010000 d0dfffff ffffffff  $...............
 7ab8 7f000000 00000000 00410e10 8602430d  .........A....C.
 7ac8 06458303 00000000 24000000 ec010000  .E......$.......
 7ad8 28e0ffff ffffffff 1b000000 00000000  (...............
 7ae8 00410e10 8602430d 06000000 00000000  .A....C.........
 7af8 24000000 14020000 20e0ffff ffffffff  $....... .......
 7b08 14000000 00000000 00410e10 8602430d  .........A....C.
 7b18 06000000 00000000 24000000 3c020000  ........$...<...
 7b28 18e0ffff ffffffff 09000000 00000000  ................
 7b38 00410e10 8602430d 06000000 00000000  .A....C.........
 7b48 24000000 64020000 00e0ffff ffffffff  $...d...........
 7b58 06000000 00000000 00410e10 8602430d  .........A....C.
 7b68 06000000 00000000 24000000 8c020000  ........$.......
 7b78 e8dfffff ffffffff 06000000 00000000  ................
 7b88 00410e10 8602430d 06000000 00000000  .A....C.........
 7b98 24000000 b4020000 d0dfffff ffffffff  $...............
 7ba8 0a000000 00000000 00410e10 8602430d  .........A....C.
 7bb8 06000000 00000000 24000000 dc020000  ........$.......
 7bc8 b8dfffff ffffffff 1f000000 00000000  ................
 7bd8 00410e10 8602430d 06000000 00000000  .A....C.........
 7be8 24000000 04030000 b0dfffff ffffffff  $...............
 7bf8 27000000 00000000 00410e10 8602430d  '........A....C.
 7c08 06000000 00000000 24000000 2c030000  ........$...,...
 7c18 b8dfffff ffffffff 14000000 00000000  ................
 7c28 00410e10 8602430d 06000000 00000000  .A....C.........
 7c38 24000000 54030000 b0dfffff ffffffff  $...T...........
 7c48 11000000 00000000 00410e10 8602430d  .........A....C.
 7c58 06000000 00000000 24000000 7c030000  ........$...|...
 7c68 a8dfffff ffffffff 06000000 00000000  ................
 7c78 00410e10 8602430d 06000000 00000000  .A....C.........
 7c88 24000000 a4030000 90dfffff ffffffff  $...............
 7c98 0a000000 00000000 00410e10 8602430d  .........A....C.
 7ca8 06000000 00000000 24000000 cc030000  ........$.......
 7cb8 78dfffff ffffffff 16000000 00000000  x...............
 7cc8 00410e10 8602430d 06000000 00000000  .A....C.........
 7cd8 24000000 f4030000 70dfffff ffffffff  $.......p.......
 7ce8 06000000 00000000 00410e10 8602430d  .........A....C.
 7cf8 06000000 00000000 24000000 1c040000  ........$.......
 7d08 58dfffff ffffffff 09000000 00000000  X...............
 7d18 00410e10 8602430d 06000000 00000000  .A....C.........
 7d28 24000000 44040000 40dfffff ffffffff  $...D...@.......
 7d38 19000000 00000000 00410e10 8602430d  .........A....C.
 7d48 06000000 00000000 24000000 6c040000  ........$...l...
 7d58 38dfffff ffffffff 06000000 00000000  8...............
 7d68 00410e10 8602430d 06000000 00000000  .A....C.........
 7d78 24000000 94040000 20dfffff ffffffff  $....... .......
 7d88 0a000000 00000000 00410e10 8602430d  .........A....C.
 7d98 06000000 00000000 24000000 bc040000  ........$.......
 7da8 08dfffff ffffffff 18000000 00000000  ................
 7db8 00410e10 8602430d 06000000 00000000  .A....C.........
 7dc8 24000000 e4040000 00dfffff ffffffff  $...............
 7dd8 11000000 00000000 00410e10 8602430d  .........A....C.
 7de8 06000000 00000000 24000000 0c050000  ........$.......
 7df8 f8deffff ffffffff 06000000 00000000  ................
 7e08 00410e10 8602430d 06000000 00000000  .A....C.........
 7e18 24000000 34050000 e0deffff ffffffff  $...4...........
 7e28 5f000000 00000000 00410e10 8602430d  _........A....C.
 7e38 06458303 00000000 24000000 5c050000  .E......$...\...
 7e48 18dfffff ffffffff 06000000 00000000  ................
 7e58 00410e10 8602430d 06000000 00000000  .A....C.........
 7e68 24000000 84050000 00dfffff ffffffff  $...............
 7e78 0a000000 00000000 00410e10 8602430d  .........A....C.
 7e88 06000000 00000000 24000000 ac050000  ........$.......
 7e98 e8deffff ffffffff 1f000000 00000000  ................
 7ea8 00410e10 8602430d 06000000 00000000  .A....C.........
 7eb8 24000000 d4050000 e0deffff ffffffff  $...............
 7ec8 22000000 00000000 00410e10 8602430d  "........A....C.
 7ed8 06000000 00000000 24000000 fc050000  ........$.......
 7ee8 e8deffff ffffffff 06000000 00000000  ................
 7ef8 00410e10 8602430d 06000000 00000000  .A....C.........

Disassembly of section .text:

0000000000000000 <__Z9stackdumpP7__sFILE>:
   0:	55                   	push   %rbp
   1:	48 89 e5             	mov    %rsp,%rbp
   4:	41 57                	push   %r15
   6:	41 56                	push   %r14
   8:	41 55                	push   %r13
   a:	41 54                	push   %r12
   c:	53                   	push   %rbx
   d:	48 81 ec 08 02 00 00 	sub    $0x208,%rsp
  14:	49 89 ff             	mov    %rdi,%r15
  17:	48 8b 05 00 00 00 00 	mov    0x0(%rip),%rax        # 1e <__Z9stackdumpP7__sFILE+0x1e>
  1e:	48 8b 00             	mov    (%rax),%rax
  21:	48 89 45 d0          	mov    %rax,-0x30(%rbp)
  25:	4c 8d b5 d0 fd ff ff 	lea    -0x230(%rbp),%r14
  2c:	be 40 00 00 00       	mov    $0x40,%esi
  31:	4c 89 f7             	mov    %r14,%rdi
  34:	e8 00 00 00 00       	callq  39 <__Z9stackdumpP7__sFILE+0x39>
  39:	89 c3                	mov    %eax,%ebx
  3b:	4c 89 f7             	mov    %r14,%rdi
  3e:	89 de                	mov    %ebx,%esi
  40:	e8 00 00 00 00       	callq  45 <__Z9stackdumpP7__sFILE+0x45>
  45:	49 89 c5             	mov    %rax,%r13
  48:	48 8d 3d 91 5d 00 00 	lea    0x5d91(%rip),%rdi        # 5de0 <__ZN6CircleD2Ev+0x10>
  4f:	be 1e 00 00 00       	mov    $0x1e,%esi
  54:	ba 01 00 00 00       	mov    $0x1,%edx
  59:	4c 89 f9             	mov    %r15,%rcx
  5c:	e8 00 00 00 00       	callq  61 <__Z9stackdumpP7__sFILE+0x61>
  61:	85 db                	test   %ebx,%ebx
  63:	7e 23                	jle    88 <__Z9stackdumpP7__sFILE+0x88>
  65:	4c 8d 25 93 5d 00 00 	lea    0x5d93(%rip),%r12        # 5dff <__ZN6CircleD2Ev+0x2f>
  6c:	4d 89 ee             	mov    %r13,%r14
  6f:	90                   	nop
  70:	49 8b 16             	mov    (%r14),%rdx
  73:	31 c0                	xor    %eax,%eax
  75:	4c 89 ff             	mov    %r15,%rdi
  78:	4c 89 e6             	mov    %r12,%rsi
  7b:	e8 00 00 00 00       	callq  80 <__Z9stackdumpP7__sFILE+0x80>
  80:	49 83 c6 08          	add    $0x8,%r14
  84:	ff cb                	dec    %ebx
  86:	75 e8                	jne    70 <__Z9stackdumpP7__sFILE+0x70>
  88:	48 8d 3d 74 5d 00 00 	lea    0x5d74(%rip),%rdi        # 5e03 <__ZN6CircleD2Ev+0x33>
  8f:	be 1c 00 00 00       	mov    $0x1c,%esi
  94:	ba 01 00 00 00       	mov    $0x1,%edx
  99:	4c 89 f9             	mov    %r15,%rcx
  9c:	e8 00 00 00 00       	callq  a1 <__Z9stackdumpP7__sFILE+0xa1>
  a1:	4c 89 ef             	mov    %r13,%rdi
  a4:	e8 00 00 00 00       	callq  a9 <__Z9stackdumpP7__sFILE+0xa9>
  a9:	48 8b 05 00 00 00 00 	mov    0x0(%rip),%rax        # b0 <__Z9stackdumpP7__sFILE+0xb0>
  b0:	48 8b 00             	mov    (%rax),%rax
  b3:	48 3b 45 d0          	cmp    -0x30(%rbp),%rax
  b7:	75 12                	jne    cb <__Z9stackdumpP7__sFILE+0xcb>
  b9:	48 81 c4 08 02 00 00 	add    $0x208,%rsp
  c0:	5b                   	pop    %rbx
  c1:	41 5c                	pop    %r12
  c3:	41 5d                	pop    %r13
  c5:	41 5e                	pop    %r14
  c7:	41 5f                	pop    %r15
  c9:	5d                   	pop    %rbp
  ca:	c3                   	retq   
  cb:	e8 00 00 00 00       	callq  d0 <__Z7hexdumpPciP7__sFILE>

00000000000000d0 <__Z7hexdumpPciP7__sFILE>:
  d0:	55                   	push   %rbp
  d1:	48 89 e5             	mov    %rsp,%rbp
  d4:	41 57                	push   %r15
  d6:	41 56                	push   %r14
  d8:	41 54                	push   %r12
  da:	53                   	push   %rbx
  db:	49 89 d6             	mov    %rdx,%r14
  de:	41 89 f7             	mov    %esi,%r15d
  e1:	48 89 fb             	mov    %rdi,%rbx
  e4:	45 85 ff             	test   %r15d,%r15d
  e7:	7e 1f                	jle    108 <__Z7hexdumpPciP7__sFILE+0x38>
  e9:	4c 8d 25 30 5d 00 00 	lea    0x5d30(%rip),%r12        # 5e20 <__ZN6CircleD2Ev+0x50>
  f0:	0f be 13             	movsbl (%rbx),%edx
  f3:	31 c0                	xor    %eax,%eax
  f5:	4c 89 f7             	mov    %r14,%rdi
  f8:	4c 89 e6             	mov    %r12,%rsi
  fb:	e8 00 00 00 00       	callq  100 <__Z7hexdumpPciP7__sFILE+0x30>
 100:	48 ff c3             	inc    %rbx
 103:	41 ff cf             	dec    %r15d
 106:	75 e8                	jne    f0 <__Z7hexdumpPciP7__sFILE+0x20>
 108:	bf 0a 00 00 00       	mov    $0xa,%edi
 10d:	4c 89 f6             	mov    %r14,%rsi
 110:	5b                   	pop    %rbx
 111:	41 5c                	pop    %r12
 113:	41 5e                	pop    %r14
 115:	41 5f                	pop    %r15
 117:	5d                   	pop    %rbp
 118:	e9 00 00 00 00       	jmpq   11d <__Z7hexdumpPciP7__sFILE+0x4d>
 11d:	0f 1f 00             	nopl   (%rax)

0000000000000120 <__Z9statisticPKciP7__sFILE>:
 120:	55                   	push   %rbp
 121:	48 89 e5             	mov    %rsp,%rbp
 124:	41 57                	push   %r15
 126:	41 56                	push   %r14
 128:	53                   	push   %rbx
 129:	50                   	push   %rax
 12a:	48 89 d3             	mov    %rdx,%rbx
 12d:	41 89 f6             	mov    %esi,%r14d
 130:	49 89 ff             	mov    %rdi,%r15
 133:	31 ff                	xor    %edi,%edi
 135:	e8 00 00 00 00       	callq  13a <__Z9statisticPKciP7__sFILE+0x1a>
 13a:	48 89 c1             	mov    %rax,%rcx
 13d:	4c 8b 0d 00 00 00 00 	mov    0x0(%rip),%r9        # 144 <__Z9statisticPKciP7__sFILE+0x24>
 144:	49 ff c1             	inc    %r9
 147:	4c 89 0d 00 00 00 00 	mov    %r9,0x0(%rip)        # 14e <__Z9statisticPKciP7__sFILE+0x2e>
 14e:	48 8d 35 d3 5c 00 00 	lea    0x5cd3(%rip),%rsi        # 5e28 <__ZN6CircleD2Ev+0x58>
 155:	31 c0                	xor    %eax,%eax
 157:	48 89 df             	mov    %rbx,%rdi
 15a:	48 89 ca             	mov    %rcx,%rdx
 15d:	45 89 f0             	mov    %r14d,%r8d
 160:	4c 89 f9             	mov    %r15,%rcx
 163:	e8 00 00 00 00       	callq  168 <__Z9statisticPKciP7__sFILE+0x48>
 168:	48 8b 05 00 00 00 00 	mov    0x0(%rip),%rax        # 16f <__Z9statisticPKciP7__sFILE+0x4f>
 16f:	48 8b 38             	mov    (%rax),%rdi
 172:	e8 00 00 00 00       	callq  177 <__Z9statisticPKciP7__sFILE+0x57>
 177:	8b 05 00 00 00 00    	mov    0x0(%rip),%eax        # 17d <__Z9statisticPKciP7__sFILE+0x5d>
 17d:	48 83 c4 08          	add    $0x8,%rsp
 181:	5b                   	pop    %rbx
 182:	41 5e                	pop    %r14
 184:	41 5f                	pop    %r15
 186:	5d                   	pop    %rbp
 187:	c3                   	retq   
 188:	0f 1f 84 00 00 00 00 	nopl   0x0(%rax,%rax,1)
 18f:	00 

0000000000000190 <__Z12test_addressiPPc>:
 190:	55                   	push   %rbp
 191:	48 89 e5             	mov    %rsp,%rbp
 194:	53                   	push   %rbx
 195:	50                   	push   %rax
 196:	c7 45 f4 01 00 00 00 	movl   $0x1,-0xc(%rbp)
 19d:	c7 45 f0 02 00 00 00 	movl   $0x2,-0x10(%rbp)
 1a4:	48 8d 3d a0 5c 00 00 	lea    0x5ca0(%rip),%rdi        # 5e4b <__ZN6CircleD2Ev+0x7b>
 1ab:	be 08 00 00 00       	mov    $0x8,%esi
 1b0:	31 c0                	xor    %eax,%eax
 1b2:	e8 00 00 00 00       	callq  1b7 <__Z12test_addressiPPc+0x27>
 1b7:	48 8d 3d 9e 5c 00 00 	lea    0x5c9e(%rip),%rdi        # 5e5c <__ZN6CircleD2Ev+0x8c>
 1be:	48 8d 75 f4          	lea    -0xc(%rbp),%rsi
 1c2:	48 8d 55 f0          	lea    -0x10(%rbp),%rdx
 1c6:	31 c0                	xor    %eax,%eax
 1c8:	e8 00 00 00 00       	callq  1cd <__Z12test_addressiPPc+0x3d>
 1cd:	8b 75 f4             	mov    -0xc(%rbp),%esi
 1d0:	48 8d 3d a4 5c 00 00 	lea    0x5ca4(%rip),%rdi        # 5e7b <__ZN6CircleD2Ev+0xab>
 1d7:	31 c0                	xor    %eax,%eax
 1d9:	e8 00 00 00 00       	callq  1de <__Z12test_addressiPPc+0x4e>
 1de:	8b 4d f0             	mov    -0x10(%rbp),%ecx
 1e1:	89 c8                	mov    %ecx,%eax
 1e3:	89 c6                	mov    %eax,%esi
 1e5:	89 75 f4             	mov    %esi,-0xc(%rbp)
 1e8:	48 8d 3d 98 5c 00 00 	lea    0x5c98(%rip),%rdi        # 5e87 <__ZN6CircleD2Ev+0xb7>
 1ef:	31 c0                	xor    %eax,%eax
 1f1:	e8 00 00 00 00       	callq  1f6 <__Z12test_addressiPPc+0x66>
 1f6:	48 8b 05 00 00 00 00 	mov    0x0(%rip),%rax        # 1fd <__Z12test_addressiPPc+0x6d>
 1fd:	48 8b 10             	mov    (%rax),%rdx
 200:	48 8d 3d 8c 5c 00 00 	lea    0x5c8c(%rip),%rdi        # 5e93 <__ZN6CircleD2Ev+0xc3>
 207:	be 9b 00 00 00       	mov    $0x9b,%esi
 20c:	e8 00 00 00 00       	callq  211 <__Z12test_addressiPPc+0x81>
 211:	bf 38 00 00 00       	mov    $0x38,%edi
 216:	e8 00 00 00 00       	callq  21b <__Z12test_addressiPPc+0x8b>
 21b:	48 89 c3             	mov    %rax,%rbx
 21e:	f2 0f 10 05 d2 57 00 	movsd  0x57d2(%rip),%xmm0        # 59f8 <_main+0x54c8>
 225:	00 
 226:	f2 0f 10 0d d2 57 00 	movsd  0x57d2(%rip),%xmm1        # 5a00 <_main+0x54d0>
 22d:	00 
 22e:	f2 0f 10 15 d2 57 00 	movsd  0x57d2(%rip),%xmm2        # 5a08 <_main+0x54d8>
 235:	00 
 236:	f2 0f 10 1d d2 57 00 	movsd  0x57d2(%rip),%xmm3        # 5a10 <_main+0x54e0>
 23d:	00 
 23e:	48 89 df             	mov    %rbx,%rdi
 241:	e8 00 00 00 00       	callq  246 <__Z12test_addressiPPc+0xb6>
 246:	48 8d 53 10          	lea    0x10(%rbx),%rdx
 24a:	48 8d 3d 5d 5c 00 00 	lea    0x5c5d(%rip),%rdi        # 5eae <__ZN6CircleD2Ev+0xde>
 251:	31 c0                	xor    %eax,%eax
 253:	48 89 de             	mov    %rbx,%rsi
 256:	e8 00 00 00 00       	callq  25b <__Z12test_addressiPPc+0xcb>
 25b:	48 8b 03             	mov    (%rbx),%rax
 25e:	48 89 df             	mov    %rbx,%rdi
 261:	ff 50 08             	callq  *0x8(%rax)
 264:	31 c0                	xor    %eax,%eax
 266:	48 83 c4 08          	add    $0x8,%rsp
 26a:	5b                   	pop    %rbx
 26b:	5d                   	pop    %rbp
 26c:	c3                   	retq   
 26d:	0f 1f 00             	nopl   (%rax)

0000000000000270 <__Z10test_pointiPPc>:
 270:	55                   	push   %rbp
 271:	48 89 e5             	mov    %rsp,%rbp
 274:	41 56                	push   %r14
 276:	53                   	push   %rbx
 277:	bf 10 00 00 00       	mov    $0x10,%edi
 27c:	e8 00 00 00 00       	callq  281 <__Z10test_pointiPPc+0x11>
 281:	48 89 c3             	mov    %rax,%rbx
 284:	f2 0f 10 05 8c 57 00 	movsd  0x578c(%rip),%xmm0        # 5a18 <_main+0x54e8>
 28b:	00 
 28c:	48 89 df             	mov    %rbx,%rdi
 28f:	e8 00 00 00 00       	callq  294 <__Z10test_pointiPPc+0x24>
 294:	4c 8b 73 08          	mov    0x8(%rbx),%r14
 298:	48 8d 3d 27 5c 00 00 	lea    0x5c27(%rip),%rdi        # 5ec6 <__ZN6CircleD2Ev+0xf6>
 29f:	be 10 00 00 00       	mov    $0x10,%esi
 2a4:	31 c0                	xor    %eax,%eax
 2a6:	e8 00 00 00 00       	callq  2ab <__Z10test_pointiPPc+0x3b>
 2ab:	48 8d 3d 23 5c 00 00 	lea    0x5c23(%rip),%rdi        # 5ed5 <__ZN6CircleD2Ev+0x105>
 2b2:	31 c0                	xor    %eax,%eax
 2b4:	48 89 de             	mov    %rbx,%rsi
 2b7:	e8 00 00 00 00       	callq  2bc <__Z10test_pointiPPc+0x4c>
 2bc:	48 8d 3d 21 5c 00 00 	lea    0x5c21(%rip),%rdi        # 5ee4 <__ZN6CircleD2Ev+0x114>
 2c3:	31 c0                	xor    %eax,%eax
 2c5:	4c 89 f6             	mov    %r14,%rsi
 2c8:	e8 00 00 00 00       	callq  2cd <__Z10test_pointiPPc+0x5d>
 2cd:	48 8d 3d 24 5c 00 00 	lea    0x5c24(%rip),%rdi        # 5ef8 <__ZN6CircleD2Ev+0x128>
 2d4:	be 11 00 00 00       	mov    $0x11,%esi
 2d9:	31 d2                	xor    %edx,%edx
 2db:	31 c0                	xor    %eax,%eax
 2dd:	e8 00 00 00 00       	callq  2e2 <__Z10test_pointiPPc+0x72>
 2e2:	48 8b 03             	mov    (%rbx),%rax
 2e5:	48 89 df             	mov    %rbx,%rdi
 2e8:	ff 50 10             	callq  *0x10(%rax)
 2eb:	48 8b 03             	mov    (%rbx),%rax
 2ee:	48 89 df             	mov    %rbx,%rdi
 2f1:	ff 50 08             	callq  *0x8(%rax)
 2f4:	31 c0                	xor    %eax,%eax
 2f6:	5b                   	pop    %rbx
 2f7:	41 5e                	pop    %r14
 2f9:	5d                   	pop    %rbp
 2fa:	c3                   	retq   
 2fb:	0f 1f 44 00 00       	nopl   0x0(%rax,%rax,1)

0000000000000300 <__Z10test_shapeiPPc>:
 300:	55                   	push   %rbp
 301:	48 89 e5             	mov    %rsp,%rbp
 304:	41 57                	push   %r15
 306:	41 56                	push   %r14
 308:	41 54                	push   %r12
 30a:	53                   	push   %rbx
 30b:	48 83 ec 30          	sub    $0x30,%rsp
 30f:	c7 45 dc 78 56 34 12 	movl   $0x12345678,-0x24(%rbp)
 316:	4c 8b 25 00 00 00 00 	mov    0x0(%rip),%r12        # 31d <__Z10test_shapeiPPc+0x1d>
 31d:	49 8b 14 24          	mov    (%r12),%rdx
 321:	48 8d 5d dc          	lea    -0x24(%rbp),%rbx
 325:	be 04 00 00 00       	mov    $0x4,%esi
 32a:	48 89 df             	mov    %rbx,%rdi
 32d:	e8 00 00 00 00       	callq  332 <__Z10test_shapeiPPc+0x32>
 332:	48 8d 35 00 00 00 00 	lea    0x0(%rip),%rsi        # 339 <__Z10test_shapeiPPc+0x39>
 339:	48 8d 3d c2 5b 00 00 	lea    0x5bc2(%rip),%rdi        # 5f02 <__ZN6CircleD2Ev+0x132>
 340:	31 c0                	xor    %eax,%eax
 342:	e8 00 00 00 00       	callq  347 <__Z10test_shapeiPPc+0x47>
 347:	48 8b 05 00 00 00 00 	mov    0x0(%rip),%rax        # 34e <__Z10test_shapeiPPc+0x4e>
 34e:	48 8b 10             	mov    (%rax),%rdx
 351:	be 04 00 00 00       	mov    $0x4,%esi
 356:	48 89 df             	mov    %rbx,%rdi
 359:	e8 00 00 00 00       	callq  35e <__Z10test_shapeiPPc+0x5e>
 35e:	bf 10 00 00 00       	mov    $0x10,%edi
 363:	e8 00 00 00 00       	callq  368 <__Z10test_shapeiPPc+0x68>
 368:	49 89 c6             	mov    %rax,%r14
 36b:	f2 0f 10 05 ad 56 00 	movsd  0x56ad(%rip),%xmm0        # 5a20 <_main+0x54f0>
 372:	00 
 373:	4c 89 f7             	mov    %r14,%rdi
 376:	e8 00 00 00 00       	callq  37b <__Z10test_shapeiPPc+0x7b>
 37b:	bf 28 00 00 00       	mov    $0x28,%edi
 380:	e8 00 00 00 00       	callq  385 <__Z10test_shapeiPPc+0x85>
 385:	49 89 c7             	mov    %rax,%r15
 388:	f2 0f 10 05 98 56 00 	movsd  0x5698(%rip),%xmm0        # 5a28 <_main+0x54f8>
 38f:	00 
 390:	f2 0f 10 0d 98 56 00 	movsd  0x5698(%rip),%xmm1        # 5a30 <_main+0x5500>
 397:	00 
 398:	f2 0f 10 15 98 56 00 	movsd  0x5698(%rip),%xmm2        # 5a38 <_main+0x5508>
 39f:	00 
 3a0:	4c 89 ff             	mov    %r15,%rdi
 3a3:	e8 00 00 00 00       	callq  3a8 <__Z10test_shapeiPPc+0xa8>
 3a8:	bf 38 00 00 00       	mov    $0x38,%edi
 3ad:	e8 00 00 00 00       	callq  3b2 <__Z10test_shapeiPPc+0xb2>
 3b2:	48 89 c3             	mov    %rax,%rbx
 3b5:	f2 0f 10 15 83 56 00 	movsd  0x5683(%rip),%xmm2        # 5a40 <_main+0x5510>
 3bc:	00 
 3bd:	f2 0f 10 1d 83 56 00 	movsd  0x5683(%rip),%xmm3        # 5a48 <_main+0x5518>
 3c4:	00 
 3c5:	48 89 df             	mov    %rbx,%rdi
 3c8:	f2 0f 10 05 58 56 00 	movsd  0x5658(%rip),%xmm0        # 5a28 <_main+0x54f8>
 3cf:	00 
 3d0:	f2 0f 10 0d 58 56 00 	movsd  0x5658(%rip),%xmm1        # 5a30 <_main+0x5500>
 3d7:	00 
 3d8:	e8 00 00 00 00       	callq  3dd <__Z10test_shapeiPPc+0xdd>
 3dd:	48 8d 3d 2d 5b 00 00 	lea    0x5b2d(%rip),%rdi        # 5f11 <__ZN6CircleD2Ev+0x141>
 3e4:	be 08 00 00 00       	mov    $0x8,%esi
 3e9:	ba 04 00 00 00       	mov    $0x4,%edx
 3ee:	b9 08 00 00 00       	mov    $0x8,%ecx
 3f3:	31 c0                	xor    %eax,%eax
 3f5:	e8 00 00 00 00       	callq  3fa <__Z10test_shapeiPPc+0xfa>
 3fa:	48 8d 3d 44 5b 00 00 	lea    0x5b44(%rip),%rdi        # 5f45 <__ZN6CircleD2Ev+0x175>
 401:	be 10 00 00 00       	mov    $0x10,%esi
 406:	31 c0                	xor    %eax,%eax
 408:	48 89 da             	mov    %rbx,%rdx
 40b:	e8 00 00 00 00       	callq  410 <__Z10test_shapeiPPc+0x110>
 410:	48 8d 3d 4d 5b 00 00 	lea    0x5b4d(%rip),%rdi        # 5f64 <__ZN6CircleD2Ev+0x194>
 417:	be 28 00 00 00       	mov    $0x28,%esi
 41c:	31 c0                	xor    %eax,%eax
 41e:	4c 89 fa             	mov    %r15,%rdx
 421:	e8 00 00 00 00       	callq  426 <__Z10test_shapeiPPc+0x126>
 426:	49 8b 07             	mov    (%r15),%rax
 429:	4c 89 ff             	mov    %r15,%rdi
 42c:	ff 50 18             	callq  *0x18(%rax)
 42f:	48 8d 3d 4e 5b 00 00 	lea    0x5b4e(%rip),%rdi        # 5f84 <__ZN6CircleD2Ev+0x1b4>
 436:	be 38 00 00 00       	mov    $0x38,%esi
 43b:	31 c0                	xor    %eax,%eax
 43d:	48 89 da             	mov    %rbx,%rdx
 440:	e8 00 00 00 00       	callq  445 <__Z10test_shapeiPPc+0x145>
 445:	48 8b 03             	mov    (%rbx),%rax
 448:	48 89 df             	mov    %rbx,%rdi
 44b:	ff 50 18             	callq  *0x18(%rax)
 44e:	48 8d 53 10          	lea    0x10(%rbx),%rdx
 452:	48 8d 3d 49 5b 00 00 	lea    0x5b49(%rip),%rdi        # 5fa2 <__ZN6CircleD2Ev+0x1d2>
 459:	be 08 00 00 00       	mov    $0x8,%esi
 45e:	31 c0                	xor    %eax,%eax
 460:	e8 00 00 00 00       	callq  465 <__Z10test_shapeiPPc+0x165>
 465:	48 8b 03             	mov    (%rbx),%rax
 468:	48 89 df             	mov    %rbx,%rdi
 46b:	ff 50 10             	callq  *0x10(%rax)
 46e:	48 8b 03             	mov    (%rbx),%rax
 471:	48 89 df             	mov    %rbx,%rdi
 474:	ff 50 18             	callq  *0x18(%rax)
 477:	48 8b 03             	mov    (%rbx),%rax
 47a:	48 89 df             	mov    %rbx,%rdi
 47d:	ff 50 20             	callq  *0x20(%rax)
 480:	48 c7 45 c8 21 00 00 	movq   $0x21,-0x38(%rbp)
 487:	00 
 488:	48 c7 45 d0 00 00 00 	movq   $0x0,-0x30(%rbp)
 48f:	00 
 490:	48 8b 45 c8          	mov    -0x38(%rbp),%rax
 494:	48 8b 4d d0          	mov    -0x30(%rbp),%rcx
 498:	48 89 4c 24 08       	mov    %rcx,0x8(%rsp)
 49d:	48 89 04 24          	mov    %rax,(%rsp)
 4a1:	48 8d 3d 1d 5b 00 00 	lea    0x5b1d(%rip),%rdi        # 5fc5 <__ZN6CircleD2Ev+0x1f5>
 4a8:	be 11 00 00 00       	mov    $0x11,%esi
 4ad:	31 d2                	xor    %edx,%edx
 4af:	b9 19 00 00 00       	mov    $0x19,%ecx
 4b4:	45 31 c0             	xor    %r8d,%r8d
 4b7:	31 c0                	xor    %eax,%eax
 4b9:	e8 00 00 00 00       	callq  4be <__Z10test_shapeiPPc+0x1be>
 4be:	48 8d 3d 46 5b 00 00 	lea    0x5b46(%rip),%rdi        # 600b <__ZN6CircleD2Ev+0x23b>
 4c5:	be 11 00 00 00       	mov    $0x11,%esi
 4ca:	31 d2                	xor    %edx,%edx
 4cc:	31 c0                	xor    %eax,%eax
 4ce:	e8 00 00 00 00       	callq  4d3 <__Z10test_shapeiPPc+0x1d3>
 4d3:	48 8d 3d 49 5b 00 00 	lea    0x5b49(%rip),%rdi        # 6023 <__ZN6CircleD2Ev+0x253>
 4da:	be 01 00 00 00       	mov    $0x1,%esi
 4df:	31 d2                	xor    %edx,%edx
 4e1:	31 c0                	xor    %eax,%eax
 4e3:	e8 00 00 00 00       	callq  4e8 <__Z10test_shapeiPPc+0x1e8>
 4e8:	49 8b 07             	mov    (%r15),%rax
 4eb:	4c 89 ff             	mov    %r15,%rdi
 4ee:	ff 50 08             	callq  *0x8(%rax)
 4f1:	48 8b 03             	mov    (%rbx),%rax
 4f4:	48 89 df             	mov    %rbx,%rdi
 4f7:	ff 50 08             	callq  *0x8(%rax)
 4fa:	49 8b 06             	mov    (%r14),%rax
 4fd:	4c 89 f7             	mov    %r14,%rdi
 500:	ff 50 08             	callq  *0x8(%rax)
 503:	49 8b 14 24          	mov    (%r12),%rdx
 507:	48 8d 3d 85 59 00 00 	lea    0x5985(%rip),%rdi        # 5e93 <__ZN6CircleD2Ev+0xc3>
 50e:	be ee 00 00 00       	mov    $0xee,%esi
 513:	e8 00 00 00 00       	callq  518 <__Z10test_shapeiPPc+0x218>
 518:	31 c0                	xor    %eax,%eax
 51a:	48 83 c4 30          	add    $0x30,%rsp
 51e:	5b                   	pop    %rbx
 51f:	41 5c                	pop    %r12
 521:	41 5e                	pop    %r14
 523:	41 5f                	pop    %r15
 525:	5d                   	pop    %rbp
 526:	c3                   	retq   
 527:	66 0f 1f 84 00 00 00 	nopw   0x0(%rax,%rax,1)
 52e:	00 00 

0000000000000530 <_main>:
 530:	55                   	push   %rbp
 531:	48 89 e5             	mov    %rsp,%rbp
 534:	e8 00 00 00 00       	callq  539 <_main+0x9>
 539:	e8 00 00 00 00       	callq  53e <_main+0xe>
 53e:	48 8d 3d fb 5a 00 00 	lea    0x5afb(%rip),%rdi        # 6040 <__ZN6CircleD2Ev+0x270>
 545:	31 f6                	xor    %esi,%esi
 547:	31 c0                	xor    %eax,%eax
 549:	e8 00 00 00 00       	callq  54e <_main+0x1e>
 54e:	e8 00 00 00 00       	callq  553 <_main+0x23>
 553:	48 8d 3d fa 5a 00 00 	lea    0x5afa(%rip),%rdi        # 6054 <__ZN6CircleD2Ev+0x284>
 55a:	31 f6                	xor    %esi,%esi
 55c:	31 c0                	xor    %eax,%eax
 55e:	e8 00 00 00 00       	callq  563 <_main+0x33>
 563:	31 c0                	xor    %eax,%eax
 565:	5d                   	pop    %rbp
 566:	c3                   	retq   

Disassembly of section __TEXT.__textcoal_nt:

0000000000005a50 <__ZN4LineC1Edddd>:
    5a50:	55                   	push   %rbp
    5a51:	48 89 e5             	mov    %rsp,%rbp
    5a54:	5d                   	pop    %rbp
    5a55:	e9 00 00 00 00       	jmpq   5a5a <__ZN4LineC1Edddd+0xa>
    5a5a:	66 0f 1f 44 00 00    	nopw   0x0(%rax,%rax,1)

0000000000005a60 <__ZN5PointC1Ed>:
    5a60:	55                   	push   %rbp
    5a61:	48 89 e5             	mov    %rsp,%rbp
    5a64:	5d                   	pop    %rbp
    5a65:	e9 00 00 00 00       	jmpq   5a6a <__ZN5PointC1Ed+0xa>
    5a6a:	66 0f 1f 44 00 00    	nopw   0x0(%rax,%rax,1)

0000000000005a70 <__ZN6CircleC1Eddd>:
    5a70:	55                   	push   %rbp
    5a71:	48 89 e5             	mov    %rsp,%rbp
    5a74:	5d                   	pop    %rbp
    5a75:	e9 00 00 00 00       	jmpq   5a7a <__ZN6CircleC1Eddd+0xa>
    5a7a:	66 0f 1f 44 00 00    	nopw   0x0(%rax,%rax,1)

0000000000005a80 <__ZN4LineC2Edddd>:
    5a80:	55                   	push   %rbp
    5a81:	48 89 e5             	mov    %rsp,%rbp
    5a84:	53                   	push   %rbx
    5a85:	48 83 ec 28          	sub    $0x28,%rsp
    5a89:	f2 0f 11 5d f0       	movsd  %xmm3,-0x10(%rbp)
    5a8e:	f2 0f 11 55 e8       	movsd  %xmm2,-0x18(%rbp)
    5a93:	f2 0f 11 4d e0       	movsd  %xmm1,-0x20(%rbp)
    5a98:	f2 0f 11 45 d8       	movsd  %xmm0,-0x28(%rbp)
    5a9d:	48 89 fb             	mov    %rdi,%rbx
    5aa0:	e8 00 00 00 00       	callq  5aa5 <__ZN4LineC2Edddd+0x25>
    5aa5:	48 8d 7b 10          	lea    0x10(%rbx),%rdi
    5aa9:	e8 00 00 00 00       	callq  5aae <__ZN4LineC2Edddd+0x2e>
    5aae:	48 8b 05 00 00 00 00 	mov    0x0(%rip),%rax        # 5ab5 <__ZN4LineC2Edddd+0x35>
    5ab5:	48 8d 48 10          	lea    0x10(%rax),%rcx
    5ab9:	48 89 0b             	mov    %rcx,(%rbx)
    5abc:	48 83 c0 48          	add    $0x48,%rax
    5ac0:	48 89 43 10          	mov    %rax,0x10(%rbx)
    5ac4:	f2 0f 10 45 d8       	movsd  -0x28(%rbp),%xmm0
    5ac9:	f2 0f 11 43 18       	movsd  %xmm0,0x18(%rbx)
    5ace:	f2 0f 10 45 e0       	movsd  -0x20(%rbp),%xmm0
    5ad3:	f2 0f 11 43 20       	movsd  %xmm0,0x20(%rbx)
    5ad8:	f2 0f 10 45 e8       	movsd  -0x18(%rbp),%xmm0
    5add:	f2 0f 11 43 28       	movsd  %xmm0,0x28(%rbx)
    5ae2:	f2 0f 10 45 f0       	movsd  -0x10(%rbp),%xmm0
    5ae7:	f2 0f 11 43 30       	movsd  %xmm0,0x30(%rbx)
    5aec:	be 02 00 00 00       	mov    $0x2,%esi
    5af1:	48 89 df             	mov    %rbx,%rdi
    5af4:	48 83 c4 28          	add    $0x28,%rsp
    5af8:	5b                   	pop    %rbx
    5af9:	5d                   	pop    %rbp
    5afa:	e9 00 00 00 00       	jmpq   5aff <__ZN4LineC2Edddd+0x7f>
    5aff:	90                   	nop

0000000000005b00 <__ZN5ShapeC2Ev>:
    5b00:	55                   	push   %rbp
    5b01:	48 89 e5             	mov    %rsp,%rbp
    5b04:	48 8b 05 00 00 00 00 	mov    0x0(%rip),%rax        # 5b0b <__ZN5ShapeC2Ev+0xb>
    5b0b:	48 83 c0 10          	add    $0x10,%rax
    5b0f:	48 89 07             	mov    %rax,(%rdi)
    5b12:	c7 47 08 00 00 00 00 	movl   $0x0,0x8(%rdi)
    5b19:	5d                   	pop    %rbp
    5b1a:	c3                   	retq   
    5b1b:	0f 1f 44 00 00       	nopl   0x0(%rax,%rax,1)

0000000000005b20 <__ZN9PrintableC2Ev>:
    5b20:	55                   	push   %rbp
    5b21:	48 89 e5             	mov    %rsp,%rbp
    5b24:	48 8b 05 00 00 00 00 	mov    0x0(%rip),%rax        # 5b2b <__ZN9PrintableC2Ev+0xb>
    5b2b:	48 83 c0 10          	add    $0x10,%rax
    5b2f:	48 89 07             	mov    %rax,(%rdi)
    5b32:	5d                   	pop    %rbp
    5b33:	c3                   	retq   
    5b34:	66 66 66 2e 0f 1f 84 	data16 data16 nopw %cs:0x0(%rax,%rax,1)
    5b3b:	00 00 00 00 00 

0000000000005b40 <__ZN5Shape8SetColorEi>:
    5b40:	55                   	push   %rbp
    5b41:	48 89 e5             	mov    %rsp,%rbp
    5b44:	89 77 08             	mov    %esi,0x8(%rdi)
    5b47:	5d                   	pop    %rbp
    5b48:	c3                   	retq   
    5b49:	0f 1f 80 00 00 00 00 	nopl   0x0(%rax)

0000000000005b50 <__ZN5ShapeD2Ev>:
    5b50:	55                   	push   %rbp
    5b51:	48 89 e5             	mov    %rsp,%rbp
    5b54:	5d                   	pop    %rbp
    5b55:	c3                   	retq   
    5b56:	66 2e 0f 1f 84 00 00 	nopw   %cs:0x0(%rax,%rax,1)
    5b5d:	00 00 00 

0000000000005b60 <__ZN4LineD1Ev>:
    5b60:	55                   	push   %rbp
    5b61:	48 89 e5             	mov    %rsp,%rbp
    5b64:	5d                   	pop    %rbp
    5b65:	c3                   	retq   
    5b66:	66 2e 0f 1f 84 00 00 	nopw   %cs:0x0(%rax,%rax,1)
    5b6d:	00 00 00 

0000000000005b70 <__ZN4LineD0Ev>:
    5b70:	55                   	push   %rbp
    5b71:	48 89 e5             	mov    %rsp,%rbp
    5b74:	5d                   	pop    %rbp
    5b75:	e9 00 00 00 00       	jmpq   5b7a <__ZN4LineD0Ev+0xa>
    5b7a:	66 0f 1f 44 00 00    	nopw   0x0(%rax,%rax,1)

0000000000005b80 <__ZN4Line4drawEv>:
    5b80:	55                   	push   %rbp
    5b81:	48 89 e5             	mov    %rsp,%rbp
    5b84:	e8 00 00 00 00       	callq  5b89 <__ZN4Line4drawEv+0x9>
    5b89:	89 c1                	mov    %eax,%ecx
    5b8b:	48 8d 3d ec 04 00 00 	lea    0x4ec(%rip),%rdi        # 607e <__ZN6CircleD2Ev+0x2ae>
    5b92:	31 c0                	xor    %eax,%eax
    5b94:	89 ce                	mov    %ecx,%esi
    5b96:	e8 00 00 00 00       	callq  5b9b <__ZN4Line4drawEv+0x1b>
    5b9b:	31 c0                	xor    %eax,%eax
    5b9d:	5d                   	pop    %rbp
    5b9e:	c3                   	retq   
    5b9f:	90                   	nop

0000000000005ba0 <__ZN4Line4dumpEv>:
    5ba0:	55                   	push   %rbp
    5ba1:	48 89 e5             	mov    %rsp,%rbp
    5ba4:	f2 0f 10 47 18       	movsd  0x18(%rdi),%xmm0
    5ba9:	f2 0f 10 4f 20       	movsd  0x20(%rdi),%xmm1
    5bae:	f2 0f 10 57 28       	movsd  0x28(%rdi),%xmm2
    5bb3:	f2 0f 10 5f 30       	movsd  0x30(%rdi),%xmm3
    5bb8:	48 8d 3d db 04 00 00 	lea    0x4db(%rip),%rdi        # 609a <__ZN6CircleD2Ev+0x2ca>
    5bbf:	b0 04                	mov    $0x4,%al
    5bc1:	5d                   	pop    %rbp
    5bc2:	e9 00 00 00 00       	jmpq   5bc7 <__ZN4Line4dumpEv+0x27>
    5bc7:	66 0f 1f 84 00 00 00 	nopw   0x0(%rax,%rax,1)
    5bce:	00 00 

0000000000005bd0 <__ZN4Line5printEv>:
    5bd0:	55                   	push   %rbp
    5bd1:	48 89 e5             	mov    %rsp,%rbp
    5bd4:	48 8d 3d 5a 05 00 00 	lea    0x55a(%rip),%rdi        # 6135 <__ZN6CircleD2Ev+0x365>
    5bdb:	e8 00 00 00 00       	callq  5be0 <__ZN4Line5printEv+0x10>
    5be0:	31 c0                	xor    %eax,%eax
    5be2:	5d                   	pop    %rbp
    5be3:	c3                   	retq   
    5be4:	66 66 66 2e 0f 1f 84 	data16 data16 nopw %cs:0x0(%rax,%rax,1)
    5beb:	00 00 00 00 00 

0000000000005bf0 <__ZThn16_N4Line5printEv>:
    5bf0:	55                   	push   %rbp
    5bf1:	48 89 e5             	mov    %rsp,%rbp
    5bf4:	48 83 c7 f0          	add    $0xfffffffffffffff0,%rdi
    5bf8:	e8 00 00 00 00       	callq  5bfd <__ZThn16_N4Line5printEv+0xd>
    5bfd:	31 c0                	xor    %eax,%eax
    5bff:	5d                   	pop    %rbp
    5c00:	c3                   	retq   
    5c01:	66 66 66 66 66 66 2e 	data16 data16 data16 data16 data16 nopw %cs:0x0(%rax,%rax,1)
    5c08:	0f 1f 84 00 00 00 00 
    5c0f:	00 

0000000000005c10 <__ZN5ShapeD1Ev>:
    5c10:	55                   	push   %rbp
    5c11:	48 89 e5             	mov    %rsp,%rbp
    5c14:	5d                   	pop    %rbp
    5c15:	c3                   	retq   
    5c16:	66 2e 0f 1f 84 00 00 	nopw   %cs:0x0(%rax,%rax,1)
    5c1d:	00 00 00 

0000000000005c20 <__ZN5ShapeD0Ev>:
    5c20:	55                   	push   %rbp
    5c21:	48 89 e5             	mov    %rsp,%rbp
    5c24:	5d                   	pop    %rbp
    5c25:	e9 00 00 00 00       	jmpq   5c2a <__ZN5ShapeD0Ev+0xa>
    5c2a:	66 0f 1f 44 00 00    	nopw   0x0(%rax,%rax,1)

0000000000005c30 <__ZN5Shape4dumpEv>:
    5c30:	55                   	push   %rbp
    5c31:	48 89 e5             	mov    %rsp,%rbp
    5c34:	8b 77 08             	mov    0x8(%rdi),%esi
    5c37:	48 8d 3d 2a 04 00 00 	lea    0x42a(%rip),%rdi        # 6068 <__ZN6CircleD2Ev+0x298>
    5c3e:	31 c0                	xor    %eax,%eax
    5c40:	5d                   	pop    %rbp
    5c41:	e9 00 00 00 00       	jmpq   5c46 <__ZN5Shape4dumpEv+0x16>
    5c46:	66 2e 0f 1f 84 00 00 	nopw   %cs:0x0(%rax,%rax,1)
    5c4d:	00 00 00 

0000000000005c50 <__ZN4LineD2Ev>:
    5c50:	55                   	push   %rbp
    5c51:	48 89 e5             	mov    %rsp,%rbp
    5c54:	5d                   	pop    %rbp
    5c55:	c3                   	retq   
    5c56:	66 2e 0f 1f 84 00 00 	nopw   %cs:0x0(%rax,%rax,1)
    5c5d:	00 00 00 

0000000000005c60 <__ZN5Shape8GetColorEv>:
    5c60:	55                   	push   %rbp
    5c61:	48 89 e5             	mov    %rsp,%rbp
    5c64:	8b 47 08             	mov    0x8(%rdi),%eax
    5c67:	5d                   	pop    %rbp
    5c68:	c3                   	retq   
    5c69:	0f 1f 80 00 00 00 00 	nopl   0x0(%rax)

0000000000005c70 <__ZN5PointC2Ed>:
    5c70:	55                   	push   %rbp
    5c71:	48 89 e5             	mov    %rsp,%rbp
    5c74:	48 8b 05 00 00 00 00 	mov    0x0(%rip),%rax        # 5c7b <__ZN5PointC2Ed+0xb>
    5c7b:	48 83 c0 10          	add    $0x10,%rax
    5c7f:	48 89 07             	mov    %rax,(%rdi)
    5c82:	f2 0f 11 47 08       	movsd  %xmm0,0x8(%rdi)
    5c87:	5d                   	pop    %rbp
    5c88:	c3                   	retq   
    5c89:	0f 1f 80 00 00 00 00 	nopl   0x0(%rax)

0000000000005c90 <__ZN5PointD1Ev>:
    5c90:	55                   	push   %rbp
    5c91:	48 89 e5             	mov    %rsp,%rbp
    5c94:	5d                   	pop    %rbp
    5c95:	c3                   	retq   
    5c96:	66 2e 0f 1f 84 00 00 	nopw   %cs:0x0(%rax,%rax,1)
    5c9d:	00 00 00 

0000000000005ca0 <__ZN5PointD0Ev>:
    5ca0:	55                   	push   %rbp
    5ca1:	48 89 e5             	mov    %rsp,%rbp
    5ca4:	5d                   	pop    %rbp
    5ca5:	e9 00 00 00 00       	jmpq   5caa <__ZN5PointD0Ev+0xa>
    5caa:	66 0f 1f 44 00 00    	nopw   0x0(%rax,%rax,1)

0000000000005cb0 <__ZN5Point4dumpEv>:
    5cb0:	55                   	push   %rbp
    5cb1:	48 89 e5             	mov    %rsp,%rbp
    5cb4:	f2 0f 10 47 08       	movsd  0x8(%rdi),%xmm0
    5cb9:	48 8d 3d 0f 04 00 00 	lea    0x40f(%rip),%rdi        # 60cf <__ZN6CircleD2Ev+0x2ff>
    5cc0:	b0 01                	mov    $0x1,%al
    5cc2:	5d                   	pop    %rbp
    5cc3:	e9 00 00 00 00       	jmpq   5cc8 <__ZN5Point4dumpEv+0x18>
    5cc8:	0f 1f 84 00 00 00 00 	nopl   0x0(%rax,%rax,1)
    5ccf:	00 

0000000000005cd0 <__ZN5Point4moveEv>:
    5cd0:	55                   	push   %rbp
    5cd1:	48 89 e5             	mov    %rsp,%rbp
    5cd4:	48 8d 3d 75 04 00 00 	lea    0x475(%rip),%rdi        # 6150 <__ZN6CircleD2Ev+0x380>
    5cdb:	5d                   	pop    %rbp
    5cdc:	e9 00 00 00 00       	jmpq   5ce1 <__ZN5Point4moveEv+0x11>
    5ce1:	66 66 66 66 66 66 2e 	data16 data16 data16 data16 data16 nopw %cs:0x0(%rax,%rax,1)
    5ce8:	0f 1f 84 00 00 00 00 
    5cef:	00 

0000000000005cf0 <__ZN5PointD2Ev>:
    5cf0:	55                   	push   %rbp
    5cf1:	48 89 e5             	mov    %rsp,%rbp
    5cf4:	5d                   	pop    %rbp
    5cf5:	c3                   	retq   
    5cf6:	66 2e 0f 1f 84 00 00 	nopw   %cs:0x0(%rax,%rax,1)
    5cfd:	00 00 00 

0000000000005d00 <__ZN6CircleC2Eddd>:
    5d00:	55                   	push   %rbp
    5d01:	48 89 e5             	mov    %rsp,%rbp
    5d04:	53                   	push   %rbx
    5d05:	48 83 ec 18          	sub    $0x18,%rsp
    5d09:	f2 0f 11 55 f0       	movsd  %xmm2,-0x10(%rbp)
    5d0e:	f2 0f 11 4d e8       	movsd  %xmm1,-0x18(%rbp)
    5d13:	f2 0f 11 45 e0       	movsd  %xmm0,-0x20(%rbp)
    5d18:	48 89 fb             	mov    %rdi,%rbx
    5d1b:	e8 00 00 00 00       	callq  5d20 <__ZN6CircleC2Eddd+0x20>
    5d20:	48 8b 05 00 00 00 00 	mov    0x0(%rip),%rax        # 5d27 <__ZN6CircleC2Eddd+0x27>
    5d27:	48 83 c0 10          	add    $0x10,%rax
    5d2b:	48 89 03             	mov    %rax,(%rbx)
    5d2e:	f2 0f 10 45 e0       	movsd  -0x20(%rbp),%xmm0
    5d33:	f2 0f 11 43 10       	movsd  %xmm0,0x10(%rbx)
    5d38:	f2 0f 10 45 e8       	movsd  -0x18(%rbp),%xmm0
    5d3d:	f2 0f 11 43 18       	movsd  %xmm0,0x18(%rbx)
    5d42:	f2 0f 10 45 f0       	movsd  -0x10(%rbp),%xmm0
    5d47:	f2 0f 11 43 20       	movsd  %xmm0,0x20(%rbx)
    5d4c:	be 01 00 00 00       	mov    $0x1,%esi
    5d51:	48 89 df             	mov    %rbx,%rdi
    5d54:	48 83 c4 18          	add    $0x18,%rsp
    5d58:	5b                   	pop    %rbx
    5d59:	5d                   	pop    %rbp
    5d5a:	e9 00 00 00 00       	jmpq   5d5f <__ZN6CircleC2Eddd+0x5f>
    5d5f:	90                   	nop

0000000000005d60 <__ZN6CircleD1Ev>:
    5d60:	55                   	push   %rbp
    5d61:	48 89 e5             	mov    %rsp,%rbp
    5d64:	5d                   	pop    %rbp
    5d65:	c3                   	retq   
    5d66:	66 2e 0f 1f 84 00 00 	nopw   %cs:0x0(%rax,%rax,1)
    5d6d:	00 00 00 

0000000000005d70 <__ZN6CircleD0Ev>:
    5d70:	55                   	push   %rbp
    5d71:	48 89 e5             	mov    %rsp,%rbp
    5d74:	5d                   	pop    %rbp
    5d75:	e9 00 00 00 00       	jmpq   5d7a <__ZN6CircleD0Ev+0xa>
    5d7a:	66 0f 1f 44 00 00    	nopw   0x0(%rax,%rax,1)

0000000000005d80 <__ZN6Circle4drawEv>:
    5d80:	55                   	push   %rbp
    5d81:	48 89 e5             	mov    %rsp,%rbp
    5d84:	e8 00 00 00 00       	callq  5d89 <__ZN6Circle4drawEv+0x9>
    5d89:	89 c1                	mov    %eax,%ecx
    5d8b:	48 8d 3d 62 03 00 00 	lea    0x362(%rip),%rdi        # 60f4 <__ZN6CircleD2Ev+0x324>
    5d92:	31 c0                	xor    %eax,%eax
    5d94:	89 ce                	mov    %ecx,%esi
    5d96:	e8 00 00 00 00       	callq  5d9b <__ZN6Circle4drawEv+0x1b>
    5d9b:	31 c0                	xor    %eax,%eax
    5d9d:	5d                   	pop    %rbp
    5d9e:	c3                   	retq   
    5d9f:	90                   	nop

0000000000005da0 <__ZN6Circle4dumpEv>:
    5da0:	55                   	push   %rbp
    5da1:	48 89 e5             	mov    %rsp,%rbp
    5da4:	f2 0f 10 47 10       	movsd  0x10(%rdi),%xmm0
    5da9:	f2 0f 10 4f 18       	movsd  0x18(%rdi),%xmm1
    5dae:	f2 0f 10 57 20       	movsd  0x20(%rdi),%xmm2
    5db3:	48 8d 3d 5b 03 00 00 	lea    0x35b(%rip),%rdi        # 6115 <__ZN6CircleD2Ev+0x345>
    5dba:	b0 03                	mov    $0x3,%al
    5dbc:	5d                   	pop    %rbp
    5dbd:	e9 00 00 00 00       	jmpq   5dc2 <__ZN6Circle4dumpEv+0x22>
    5dc2:	66 66 66 66 66 2e 0f 	data16 data16 data16 data16 nopw %cs:0x0(%rax,%rax,1)
    5dc9:	1f 84 00 00 00 00 00 

0000000000005dd0 <__ZN6CircleD2Ev>:
    5dd0:	55                   	push   %rbp
    5dd1:	48 89 e5             	mov    %rsp,%rbp
    5dd4:	5d                   	pop    %rbp
    5dd5:	c3                   	retq   

Disassembly of section __DATA.__datacoal_nt:

0000000000006170 <__ZTV4Line>:
	...
    61a8:	f0 ff                	lock (bad) 
    61aa:	ff                   	(bad)  
    61ab:	ff                   	(bad)  
    61ac:	ff                   	(bad)  
    61ad:	ff                   	(bad)  
    61ae:	ff                   	(bad)  
    61af:	ff 00                	incl   (%rax)
	...

00000000000061c0 <__ZTI5Shape>:
    61c0:	10 00                	adc    %al,(%rax)
	...

00000000000061d0 <__ZTI9Printable>:
    61d0:	10 00                	adc    %al,(%rax)
	...

00000000000061e0 <__ZTI4Line>:
    61e0:	10 00                	adc    %al,(%rax)
	...
    61f2:	00 00                	add    %al,(%rax)
    61f4:	02 00                	add    (%rax),%al
	...
    61fe:	00 00                	add    %al,(%rax)
    6200:	02 00                	add    (%rax),%al
	...
    620e:	00 00                	add    %al,(%rax)
    6210:	02 10                	add    (%rax),%dl
    6212:	00 00                	add    %al,(%rax)
    6214:	00 00                	add    %al,(%rax)
	...

0000000000006218 <__ZTV5Shape>:
	...

0000000000006248 <__ZTV9Printable>:
	...

0000000000006260 <__ZTV5Point>:
	...

0000000000006290 <__ZTI5Point>:
    6290:	10 00                	adc    %al,(%rax)
	...

00000000000062a0 <__ZTV6Circle>:
	...

00000000000062d0 <__ZTI6Circle>:
    62d0:	10 00                	adc    %al,(%rax)
	...

Disassembly of section __TEXT.__const_coal:

00000000000062e8 <__ZTS4Line>:
    62e8:	34 4c                	xor    $0x4c,%al
    62ea:	69 6e 65 00 35 53 68 	imul   $0x68533500,0x65(%rsi),%ebp

00000000000062ee <__ZTS5Shape>:
    62ee:	35 53 68 61 70       	xor    $0x70616853,%eax
    62f3:	65 00 39             	add    %bh,%gs:(%rcx)

00000000000062f5 <__ZTS9Printable>:
    62f5:	39 50 72             	cmp    %edx,0x72(%rax)
    62f8:	69 6e 74 61 62 6c 65 	imul   $0x656c6261,0x74(%rsi),%ebp
	...

0000000000006300 <__ZTS5Point>:
    6300:	35 50 6f 69 6e       	xor    $0x6e696f50,%eax
    6305:	74 00                	je     6307 <__ZTS6Circle>

0000000000006307 <__ZTS6Circle>:
    6307:	36                   	ss
    6308:	43                   	rex.XB
    6309:	69                   	.byte 0x69
    630a:	72 63                	jb     636f <__ZTS6Circle+0x68>
    630c:	6c                   	insb   (%dx),%es:(%rdi)
    630d:	65                   	gs
	...
